LIBRARY gdal3
EXPORTS
?$TSS0@?1???0OGRWktOptions@@QEAA@XZ@4HA
?$TSS1@?1???0OGRWktOptions@@QEAA@XZ@4HA
??0?$unique_ptr@UCPLXMLNode@@UCPLXMLTreeCloserDeleter@@@std@@QEAA@$$QEAV01@@Z
??0?$unique_ptr@UCPLXMLNode@@UCPLXMLTreeCloserDeleter@@@std@@QEAA@$$T@Z
??0?$unique_ptr@UCPLXMLNode@@UCPLXMLTreeCloserDeleter@@@std@@QEAA@PEAUCPLXMLNode@@$$QEAUCPLXMLTreeCloserDeleter@@@Z
??0?$unique_ptr@UCPLXMLNode@@UCPLXMLTreeCloserDeleter@@@std@@QEAA@PEAUCPLXMLNode@@@Z
??0?$unique_ptr@UCPLXMLNode@@UCPLXMLTreeCloserDeleter@@@std@@QEAA@PEAUCPLXMLNode@@AEBUCPLXMLTreeCloserDeleter@@@Z
??0?$unique_ptr@UCPLXMLNode@@UCPLXMLTreeCloserDeleter@@@std@@QEAA@XZ
??0ArrayContext@CPLJSonStreamingWriter@@QEAA@AEAV1@_N@Z
??0Bands@GDALDataset@@AEAA@PEAV1@@Z
??0BoundingBox@TileMatrixSet@gdal@@QEAA@$$QEAU012@@Z
??0BoundingBox@TileMatrixSet@gdal@@QEAA@AEBU012@@Z
??0BoundingBox@TileMatrixSet@gdal@@QEAA@XZ
??0CPLConfigOptionSetter@@QEAA@PEBD0_N@Z
??0CPLErrorHandlerAccumulatorStruct@@QEAA@$$QEAV0@@Z
??0CPLErrorHandlerAccumulatorStruct@@QEAA@AEBV0@@Z
??0CPLErrorHandlerAccumulatorStruct@@QEAA@W4CPLErr@@HPEBD@Z
??0CPLErrorHandlerAccumulatorStruct@@QEAA@XZ
??0CPLJSONArray@@AEAA@AEBV?$basic_string@DU?$char_traits@D@std@@V?$allocator@D@2@@std@@PEAX@Z
??0CPLJSONArray@@QEAA@$$QEAV0@@Z
??0CPLJSONArray@@QEAA@AEBV0@@Z
??0CPLJSONArray@@QEAA@AEBV?$basic_string@DU?$char_traits@D@std@@V?$allocator@D@2@@std@@@Z
??0CPLJSONArray@@QEAA@AEBVCPLJSONObject@@@Z
??0CPLJSONArray@@QEAA@XZ
??0CPLJSONDocument@@QEAA@$$QEAV0@@Z
??0CPLJSONDocument@@QEAA@AEBV0@@Z
??0CPLJSONDocument@@QEAA@XZ
??0CPLJSONObject@@AEAA@AEBV?$basic_string@DU?$char_traits@D@std@@V?$allocator@D@2@@std@@PEAX@Z
??0CPLJSONObject@@QEAA@$$QEAV0@@Z
??0CPLJSONObject@@QEAA@AEBV0@@Z
??0CPLJSONObject@@QEAA@AEBV?$basic_string@DU?$char_traits@D@std@@V?$allocator@D@2@@std@@AEBV0@@Z
??0CPLJSONObject@@QEAA@XZ
??0CPLJSonStreamingParser@@QEAA@XZ
??0CPLJSonStreamingWriter@@QEAA@P6AXPEBDPEAX@Z1@Z
??0CPLJobQueue@@IEAA@PEAVCPLWorkerThreadPool@@@Z
??0CPLKeywordParser@@QEAA@XZ
??0CPLLocaleC@@QEAA@XZ
??0CPLLockHolder@@QEAA@PEAPEAU_CPLLock@@W4CPLLockType@@PEBDH@Z
??0CPLLockHolder@@QEAA@PEAU_CPLLock@@PEBDH@Z
??0CPLMutexHolder@@QEAA@PEAPEAXNPEBDHH@Z
??0CPLMutexHolder@@QEAA@PEAXNPEBDH@Z
??0CPLStringList@@QEAA@$$QEAV0@@Z
??0CPLStringList@@QEAA@AEBV0@@Z
??0CPLStringList@@QEAA@PEAPEADH@Z
??0CPLStringList@@QEAA@PEBQEBD@Z
??0CPLStringList@@QEAA@XZ
??0CPLThreadLocaleC@@QEAA@XZ
??0CPLWorkerThreadPool@@QEAA@XZ
??0CPLXMLTreeCloser@@QEAA@$$QEAV0@@Z
??0CPLXMLTreeCloser@@QEAA@PEAUCPLXMLNode@@@Z
??0ConstFieldIterator@OGRFeature@@AEAA@PEBV1@H@Z
??0ConstIterator@CPLJSONArray@@QEAA@AEBV01@@Z
??0ConstIterator@CPLJSONArray@@QEAA@AEBV1@_N@Z
??0ConstIterator@OGRCurve@@QEAA@$$QEAV01@@Z
??0ConstIterator@OGRCurve@@QEAA@PEBV1@_N@Z
??0ConstIterator@OGRSimpleCurve@@QEAA@PEBV1@H@Z
??0DDFRecordIndex@@QEAA@XZ
??0FeatureIterator@OGRLayer@@QEAA@PEAV1@_N@Z
??0Features@GDALDataset@@AEAA@PEAV1@@Z
??0FieldValue@OGRFeature@@AEAA@PEAV1@H@Z
??0FieldValue@OGRFeature@@AEAA@PEBV1@H@Z
??0GDALAbstractMDArray@@IEAA@AEBV?$basic_string@DU?$char_traits@D@std@@V?$allocator@D@2@@std@@0@Z
??0GDALAbstractMDArray@@QEAA@AEBV0@@Z
??0GDALAllValidMaskBand@@QEAA@PEAVGDALRasterBand@@@Z
??0GDALAsyncReader@@QEAA@XZ
??0GDALAttribute@@IEAA@AEBV?$basic_string@DU?$char_traits@D@std@@V?$allocator@D@2@@std@@0@Z
??0GDALAttribute@@QEAA@$$QEAV0@@Z
??0GDALAttribute@@QEAA@AEBV0@@Z
??0GDALAttributeNumeric@@QEAA@$$QEAV0@@Z
??0GDALAttributeNumeric@@QEAA@AEBV0@@Z
??0GDALAttributeNumeric@@QEAA@AEBV?$basic_string@DU?$char_traits@D@std@@V?$allocator@D@2@@std@@0AEBV?$vector@IV?$allocator@I@std@@@2@@Z
??0GDALAttributeNumeric@@QEAA@AEBV?$basic_string@DU?$char_traits@D@std@@V?$allocator@D@2@@std@@0H@Z
??0GDALAttributeNumeric@@QEAA@AEBV?$basic_string@DU?$char_traits@D@std@@V?$allocator@D@2@@std@@0N@Z
??0GDALAttributeString@@QEAA@$$QEAV0@@Z
??0GDALAttributeString@@QEAA@AEBV0@@Z
??0GDALAttributeString@@QEAA@AEBV?$basic_string@DU?$char_traits@D@std@@V?$allocator@D@2@@std@@00W4GDALExtendedDataTypeSubType@@@Z
??0GDALColorTable@@QEAA@AEBV0@@Z
??0GDALColorTable@@QEAA@W4GDALPaletteInterp@@@Z
??0GDALDataset@@IEAA@H@Z
??0GDALDataset@@IEAA@XZ
??0GDALDefaultOverviews@@QEAA@XZ
??0GDALDefaultRasterAttributeTable@@QEAA@AEBV0@@Z
??0GDALDefaultRasterAttributeTable@@QEAA@XZ
??0GDALDimension@@QEAA@AEBV0@@Z
??0GDALDimension@@QEAA@AEBV?$basic_string@DU?$char_traits@D@std@@V?$allocator@D@2@@std@@000_K@Z
??0GDALDimensionWeakIndexingVar@@QEAA@$$QEAV0@@Z
??0GDALDimensionWeakIndexingVar@@QEAA@AEBV0@@Z
??0GDALDimensionWeakIndexingVar@@QEAA@AEBV?$basic_string@DU?$char_traits@D@std@@V?$allocator@D@2@@std@@000_K@Z
??0GDALDriver@@QEAA@XZ
??0GDALDriverManager@@QEAA@XZ
??0GDALEDTComponent@@QEAA@AEBV0@@Z
??0GDALEDTComponent@@QEAA@AEBV?$basic_string@DU?$char_traits@D@std@@V?$allocator@D@2@@std@@_KAEBVGDALExtendedDataType@@@Z
??0GDALExtendedDataType@@AEAA@AEBV?$basic_string@DU?$char_traits@D@std@@V?$allocator@D@2@@std@@_K$$QEAV?$vector@V?$unique_ptr@VGDALEDTComponent@@U?$default_delete@VGDALEDTComponent@@@std@@@std@@V?$allocator@V?$unique_ptr@VGDALEDTComponent@@U?$default_delete@VGDALEDTComponent@@@std@@@std@@@2@@2@@Z
??0GDALExtendedDataType@@AEAA@W4GDALDataType@@@Z
??0GDALExtendedDataType@@AEAA@_KW4GDALExtendedDataTypeSubType@@@Z
??0GDALExtendedDataType@@QEAA@AEBV0@@Z
??0GDALGeorefPamDataset@@QEAA@XZ
??0GDALGroup@@IEAA@AEBV?$basic_string@DU?$char_traits@D@std@@V?$allocator@D@2@@std@@0@Z
??0GDALGroup@@QEAA@AEBV0@@Z
??0GDALIHasAttribute@@QEAA@AEBV0@@Z
??0GDALIHasAttribute@@QEAA@XZ
??0GDALJP2AbstractDataset@@QEAA@XZ
??0GDALJP2Box@@QEAA@PEAU_iobuf@@@Z
??0GDALJP2Metadata@@QEAA@XZ
??0GDALMDArray@@IEAA@AEBV?$basic_string@DU?$char_traits@D@std@@V?$allocator@D@2@@std@@0@Z
??0GDALMDArray@@QEAA@$$QEAV0@@Z
??0GDALMDArray@@QEAA@AEBV0@@Z
??0GDALMDArrayRegularlySpaced@@QEAA@$$QEAV0@@Z
??0GDALMDArrayRegularlySpaced@@QEAA@AEBV0@@Z
??0GDALMDArrayRegularlySpaced@@QEAA@AEBV?$basic_string@DU?$char_traits@D@std@@V?$allocator@D@2@@std@@0AEBV?$shared_ptr@VGDALDimension@@@2@NNN@Z
??0GDALMDReaderBase@@QEAA@PEBDPEAPEAD@Z
??0GDALMDReaderManager@@QEAA@XZ
??0GDALMDReaderPleiades@@AEAA@XZ
??0GDALMDReaderPleiades@@QEAA@PEBDPEAPEAD@Z
??0GDALMajorObject@@QEAA@XZ
??0GDALMultiDomainMetadata@@QEAA@XZ
??0GDALNoDataMaskBand@@QEAA@PEAVGDALRasterBand@@@Z
??0GDALNoDataValuesMaskBand@@QEAA@PEAVGDALDataset@@@Z
??0GDALOpenInfo@@QEAA@PEBDHPEBQEBD@Z
??0GDALPamDataset@@IEAA@XZ
??0GDALPamMDArray@@IEAA@AEBV?$basic_string@DU?$char_traits@D@std@@V?$allocator@D@2@@std@@0AEBV?$shared_ptr@VGDALPamMultiDim@@@2@@Z
??0GDALPamMDArray@@QEAA@$$QEAV0@@Z
??0GDALPamMDArray@@QEAA@AEBV0@@Z
??0GDALPamMultiDim@@QEAA@AEBV?$basic_string@DU?$char_traits@D@std@@V?$allocator@D@2@@std@@@Z
??0GDALPamRasterBand@@QEAA@H@Z
??0GDALPamRasterBand@@QEAA@XZ
??0GDALProxyDataset@@IEAA@XZ
??0GDALProxyPoolDataset@@AEAA@PEBDW4GDALAccess@@H0@Z
??0GDALProxyPoolDataset@@QEAA@PEBDHHW4GDALAccess@@H0PEAN0@Z
??0GDALProxyPoolRasterBand@@QEAA@PEAVGDALProxyPoolDataset@@HW4GDALDataType@@HH@Z
??0GDALProxyPoolRasterBand@@QEAA@PEAVGDALProxyPoolDataset@@PEAVGDALRasterBand@@@Z
??0GDALProxyRasterBand@@IEAA@XZ
??0GDALRasterAttributeTable@@QEAA@AEBV0@@Z
??0GDALRasterAttributeTable@@QEAA@XZ
??0GDALRasterBand@@QEAA@H@Z
??0GDALRasterBand@@QEAA@XZ
??0GDALRasterBlock@@QEAA@HH@Z
??0GDALRasterBlock@@QEAA@PEAVGDALRasterBand@@HH@Z
??0GDALRawResult@@IEAA@PEAEAEBVGDALExtendedDataType@@_K@Z
??0GDALRawResult@@QEAA@$$QEAV0@@Z
??0GDALRelationship@@QEAA@$$QEAV0@@Z
??0GDALRelationship@@QEAA@AEBV0@@Z
??0GDALRelationship@@QEAA@AEBV?$basic_string@DU?$char_traits@D@std@@V?$allocator@D@2@@std@@00W4GDALRelationshipCardinality@@@Z
??0GDALWarpKernel@@QEAA@XZ
??0GDALWarpOperation@@QEAA@XZ
??0GMLFeature@@QEAA@PEAVGMLFeatureClass@@@Z
??0GMLFeatureClass@@QEAA@AEBV0@@Z
??0GMLFeatureClass@@QEAA@PEBD@Z
??0GMLGeometryPropertyDefn@@QEAA@AEBV0@@Z
??0GMLGeometryPropertyDefn@@QEAA@PEBD0HH_N@Z
??0GMLPropertyDefn@@QEAA@PEBD0@Z
??0GNMGenericNetwork@@QEAA@XZ
??0GNMGraph@@QEAA@AEBV0@@Z
??0GNMGraph@@QEAA@XZ
??0GNMNetwork@@QEAA@XZ
??0GNMRule@@QEAA@AEBV0@@Z
??0GNMRule@@QEAA@AEBV?$basic_string@DU?$char_traits@D@std@@V?$allocator@D@2@@std@@@Z
??0GNMRule@@QEAA@PEBD@Z
??0GNMRule@@QEAA@XZ
??0IGMLReader@@QEAA@AEBV0@@Z
??0IGMLReader@@QEAA@XZ
??0IOGRConstGeometryVisitor@@QEAA@AEBV0@@Z
??0IOGRConstGeometryVisitor@@QEAA@XZ
??0IOGREditableLayerSynchronizer@@QEAA@AEBV0@@Z
??0IOGREditableLayerSynchronizer@@QEAA@XZ
??0IOGRGeometryVisitor@@QEAA@AEBV0@@Z
??0IOGRGeometryVisitor@@QEAA@XZ
??0IOGRTransactionBehaviour@@QEAA@AEBV0@@Z
??0IOGRTransactionBehaviour@@QEAA@XZ
??0Iterator@Bands@GDALDataset@@QEAA@PEAV2@_N@Z
??0Iterator@Features@GDALDataset@@QEAA@PEAV2@_N@Z
??0Iterator@Layers@GDALDataset@@QEAA@$$QEAV012@@Z
??0Iterator@Layers@GDALDataset@@QEAA@AEBV012@@Z
??0Iterator@Layers@GDALDataset@@QEAA@PEAV2@_N@Z
??0Iterator@Layers@GDALDataset@@QEAA@XZ
??0Iterator@OGRSimpleCurve@@QEAA@PEAV1@H@Z
??0Layers@GDALDataset@@AEAA@PEAV1@@Z
??0MEMAbstractMDArray@@QEAA@AEBV?$basic_string@DU?$char_traits@D@std@@V?$allocator@D@2@@std@@0AEBV?$vector@V?$shared_ptr@VGDALDimension@@@std@@V?$allocator@V?$shared_ptr@VGDALDimension@@@std@@@2@@2@AEBVGDALExtendedDataType@@@Z
??0MEMDataset@@QEAA@XZ
??0MEMGroup@@QEAA@$$QEAV0@@Z
??0MEMGroup@@QEAA@AEBV0@@Z
??0MEMGroup@@QEAA@AEBV?$basic_string@DU?$char_traits@D@std@@V?$allocator@D@2@@std@@PEBD@Z
??0MEMRasterBand@@AEAA@PEAEW4GDALDataType@@HH@Z
??0MEMRasterBand@@QEAA@PEAVGDALDataset@@HPEAEW4GDALDataType@@_J3HPEBD@Z
??0NASAKeywordHandler@@QEAA@XZ
??0OGRAbstractProxiedLayer@@QEAA@PEAVOGRLayerPool@@@Z
??0OGRArrowArrayHelper@@QEAA@PEAVGDALDataset@@PEAVOGRFeatureDefn@@AEBVCPLStringList@@PEAUArrowArray@@@Z
??0OGRAttrIndex@@IEAA@XZ
??0OGRAttrIndex@@QEAA@AEBV0@@Z
??0OGRCircularString@@QEAA@AEBV0@@Z
??0OGRCircularString@@QEAA@XZ
??0OGRCodedFieldDomain@@QEAA@AEBV?$basic_string@DU?$char_traits@D@std@@V?$allocator@D@2@@std@@0W4OGRFieldType@@W4OGRFieldSubType@@$$QEAV?$vector@UOGRCodedValue@@V?$allocator@UOGRCodedValue@@@std@@@2@@Z
??0OGRCompoundCurve@@QEAA@AEBV0@@Z
??0OGRCompoundCurve@@QEAA@XZ
??0OGRCoordinateTransformation@@QEAA@AEBV0@@Z
??0OGRCoordinateTransformation@@QEAA@XZ
??0OGRCoordinateTransformationOptions@@QEAA@AEBU0@@Z
??0OGRCoordinateTransformationOptions@@QEAA@XZ
??0OGRCurve@@IEAA@AEBV0@@Z
??0OGRCurve@@IEAA@XZ
??0OGRCurveCollection@@QEAA@AEBV0@@Z
??0OGRCurveCollection@@QEAA@XZ
??0OGRCurvePolygon@@QEAA@AEBV0@@Z
??0OGRCurvePolygon@@QEAA@XZ
??0OGRDataSource@@QEAA@XZ
??0OGRDefaultConstGeometryVisitor@@QEAA@$$QEAV0@@Z
??0OGRDefaultConstGeometryVisitor@@QEAA@AEBV0@@Z
??0OGRDefaultConstGeometryVisitor@@QEAA@XZ
??0OGRDefaultGeometryVisitor@@QEAA@$$QEAV0@@Z
??0OGRDefaultGeometryVisitor@@QEAA@AEBV0@@Z
??0OGRDefaultGeometryVisitor@@QEAA@XZ
??0OGREditableLayer@@QEAA@PEAVOGRLayer@@_NPEAVIOGREditableLayerSynchronizer@@1@Z
??0OGREnvelope3D@@QEAA@AEBV0@@Z
??0OGREnvelope3D@@QEAA@XZ
??0OGREnvelope@@QEAA@AEBV0@@Z
??0OGREnvelope@@QEAA@XZ
??0OGRFeature@@QEAA@PEAVOGRFeatureDefn@@@Z
??0OGRFeatureDefn@@QEAA@PEBD@Z
??0OGRFeatureQuery@@QEAA@XZ
??0OGRFieldDefn@@QEAA@PEBDW4OGRFieldType@@@Z
??0OGRFieldDefn@@QEAA@PEBV0@@Z
??0OGRFieldDomain@@IEAA@AEBV?$basic_string@DU?$char_traits@D@std@@V?$allocator@D@2@@std@@0W4OGRFieldDomainType@@W4OGRFieldType@@W4OGRFieldSubType@@@Z
??0OGRFieldDomain@@QEAA@AEBV0@@Z
??0OGRGeomFieldDefn@@QEAA@PEBDW4OGRwkbGeometryType@@@Z
??0OGRGeomFieldDefn@@QEAA@PEBV0@@Z
??0OGRGeometry@@QEAA@AEBV0@@Z
??0OGRGeometry@@QEAA@XZ
??0OGRGeometryCollection@@QEAA@AEBV0@@Z
??0OGRGeometryCollection@@QEAA@XZ
??0OGRGlobFieldDomain@@QEAA@AEBV?$basic_string@DU?$char_traits@D@std@@V?$allocator@D@2@@std@@0W4OGRFieldType@@W4OGRFieldSubType@@0@Z
??0OGRIteratedPoint@@AEAA@XZ
??0OGRLayer@@QEAA@XZ
??0OGRLayerAttrIndex@@IEAA@XZ
??0OGRLayerDecorator@@QEAA@PEAVOGRLayer@@H@Z
??0OGRLayerPool@@QEAA@H@Z
??0OGRLineString@@QEAA@AEBV0@@Z
??0OGRLineString@@QEAA@XZ
??0OGRLinearRing@@QEAA@AEBV0@@Z
??0OGRLinearRing@@QEAA@PEAV0@@Z
??0OGRLinearRing@@QEAA@XZ
??0OGRMemLayer@@QEAA@PEBDPEAVOGRSpatialReference@@W4OGRwkbGeometryType@@@Z
??0OGRMultiCurve@@QEAA@AEBV0@@Z
??0OGRMultiCurve@@QEAA@XZ
??0OGRMultiLineString@@QEAA@AEBV0@@Z
??0OGRMultiLineString@@QEAA@XZ
??0OGRMultiPoint@@QEAA@AEBV0@@Z
??0OGRMultiPoint@@QEAA@XZ
??0OGRMultiPolygon@@QEAA@AEBV0@@Z
??0OGRMultiPolygon@@QEAA@XZ
??0OGRMultiSurface@@QEAA@AEBV0@@Z
??0OGRMultiSurface@@QEAA@XZ
??0OGRMutexedDataSource@@QEAA@PEAVOGRDataSource@@HPEAXH@Z
??0OGRMutexedLayer@@QEAA@PEAVOGRLayer@@HPEAX@Z
??0OGRPoint@@QEAA@AEBV0@@Z
??0OGRPoint@@QEAA@NN@Z
??0OGRPoint@@QEAA@NNN@Z
??0OGRPoint@@QEAA@NNNN@Z
??0OGRPoint@@QEAA@XZ
??0OGRPointIterator@@QEAA@AEBV0@@Z
??0OGRPointIterator@@QEAA@XZ
??0OGRPolygon@@QEAA@AEBV0@@Z
??0OGRPolygon@@QEAA@XZ
??0OGRPolyhedralSurface@@QEAA@AEBV0@@Z
??0OGRPolyhedralSurface@@QEAA@XZ
??0OGRRangeFieldDomain@@QEAA@AEBV?$basic_string@DU?$char_traits@D@std@@V?$allocator@D@2@@std@@0W4OGRFieldType@@W4OGRFieldSubType@@AEBTOGRField@@_N34@Z
??0OGRSFDriver@@QEAA@XZ
??0OGRSFDriverRegistrar@@AEAA@XZ
??0OGRSimpleCurve@@IEAA@AEBV0@@Z
??0OGRSimpleCurve@@IEAA@XZ
??0OGRSpatialReference@@QEAA@$$QEAV0@@Z
??0OGRSpatialReference@@QEAA@AEBV0@@Z
??0OGRSpatialReference@@QEAA@PEBD@Z
??0OGRStyleBrush@@QEAA@XZ
??0OGRStyleLabel@@QEAA@XZ
??0OGRStyleMgr@@QEAA@PEAVOGRStyleTable@@@Z
??0OGRStylePen@@QEAA@XZ
??0OGRStyleSymbol@@QEAA@XZ
??0OGRStyleTable@@QEAA@XZ
??0OGRStyleTool@@QEAA@W4ogr_style_tool_class_id@@@Z
??0OGRStyleTool@@QEAA@XZ
??0OGRSurface@@QEAA@$$QEAV0@@Z
??0OGRSurface@@QEAA@AEBV0@@Z
??0OGRSurface@@QEAA@XZ
??0OGRTriangle@@QEAA@AEBV0@@Z
??0OGRTriangle@@QEAA@AEBVOGRPoint@@00@Z
??0OGRTriangle@@QEAA@AEBVOGRPolygon@@AEAH@Z
??0OGRTriangle@@QEAA@XZ
??0OGRTriangulatedSurface@@QEAA@AEBV0@@Z
??0OGRTriangulatedSurface@@QEAA@XZ
??0OGRUnionLayer@@QEAA@PEBDHPEAPEAVOGRLayer@@H@Z
??0OGRUnionLayerGeomFieldDefn@@QEAA@PEBDW4OGRwkbGeometryType@@@Z
??0OGRUnionLayerGeomFieldDefn@@QEAA@PEBV0@@Z
??0OGRUnionLayerGeomFieldDefn@@QEAA@PEBVOGRGeomFieldDefn@@@Z
??0OGRWktOptions@@QEAA@XZ
??0OGR_SRSNode@@QEAA@PEBD@Z
??0ObjectContext@CPLJSonStreamingWriter@@QEAA@AEAV1@@Z
??0RawDataset@@QEAA@XZ
??0RawRasterBand@@QEAA@PEAU_iobuf@@_KHHW4GDALDataType@@HHHW4OwnFP@0@@Z
??0RawRasterBand@@QEAA@PEAU_iobuf@@_KHHW4GDALDataType@@W4ByteOrder@0@HHW4OwnFP@0@@Z
??0RawRasterBand@@QEAA@PEAVGDALDataset@@HPEAU_iobuf@@_KHHW4GDALDataType@@HW4OwnFP@0@@Z
??0RawRasterBand@@QEAA@PEAVGDALDataset@@HPEAU_iobuf@@_KHHW4GDALDataType@@W4ByteOrder@0@W4OwnFP@0@@Z
??0S57AttrInfo@@QEAA@$$QEAV0@@Z
??0S57AttrInfo@@QEAA@AEBV0@@Z
??0S57AttrInfo@@QEAA@XZ
??0S57ClassRegistrar@@QEAA@AEBV0@@Z
??0S57ClassRegistrar@@QEAA@XZ
??0S57Reader@@QEAA@AEBV0@@Z
??0S57Reader@@QEAA@PEBD@Z
??0S57Writer@@QEAA@XZ
??0TileMatrix@TileMatrixSet@gdal@@QEAA@$$QEAU012@@Z
??0TileMatrix@TileMatrixSet@gdal@@QEAA@AEBU012@@Z
??0TileMatrix@TileMatrixSet@gdal@@QEAA@XZ
??0TileMatrixSet@gdal@@AEAA@XZ
??0TileMatrixSet@gdal@@QEAA@$$QEAV01@@Z
??0TileMatrixSet@gdal@@QEAA@AEBV01@@Z
??0TransformWithOptionsCache@OGRGeometryFactory@@QEAA@XZ
??0VRTComplexSource@@QEAA@PEBV0@NN@Z
??0VRTComplexSource@@QEAA@XZ
??0VRTDataset@@QEAA@HH@Z
??0VRTDerivedRasterBand@@QEAA@PEAVGDALDataset@@H@Z
??0VRTDerivedRasterBand@@QEAA@PEAVGDALDataset@@HW4GDALDataType@@HH@Z
??0VRTRasterBand@@QEAA@XZ
??0VRTRawRasterBand@@QEAA@PEAVGDALDataset@@HW4GDALDataType@@@Z
??0VRTSimpleSource@@QEAA@PEBV0@NN@Z
??0VRTSimpleSource@@QEAA@XZ
??0VRTSource@@QEAA@AEBV0@@Z
??0VRTSource@@QEAA@XZ
??0VRTSourcedRasterBand@@QEAA@PEAVGDALDataset@@H@Z
??0VRTSourcedRasterBand@@QEAA@PEAVGDALDataset@@HW4GDALDataType@@HH@Z
??0VRTSourcedRasterBand@@QEAA@PEAVGDALDataset@@HW4GDALDataType@@HHHH@Z
??0VRTSourcedRasterBand@@QEAA@W4GDALDataType@@HH@Z
??0VRTWarpedDataset@@QEAA@HH@Z
??0VRTWarpedRasterBand@@QEAA@PEAVGDALDataset@@HW4GDALDataType@@@Z
??0VSIDIR@@QEAA@XZ
??0VSIFileManager@@AEAA@XZ
??0VSIFilesystemHandler@@QEAA@AEBV0@@Z
??0VSIFilesystemHandler@@QEAA@XZ
??0VSIVirtualHandle@@QEAA@AEBV0@@Z
??0VSIVirtualHandle@@QEAA@XZ
??0VariableMatrixWidth@TileMatrix@TileMatrixSet@gdal@@QEAA@XZ
??0swq_custom_func_registrar@@QEAA@AEBV0@@Z
??0swq_custom_func_registrar@@QEAA@XZ
??0swq_expr_node@@QEAA@H@Z
??0swq_expr_node@@QEAA@N@Z
??0swq_expr_node@@QEAA@PEAVOGRGeometry@@@Z
??0swq_expr_node@@QEAA@PEBD@Z
??0swq_expr_node@@QEAA@W4swq_op@@@Z
??0swq_expr_node@@QEAA@XZ
??0swq_expr_node@@QEAA@_J@Z
??0swq_parse_context@@QEAA@XZ
??0swq_select@@QEAA@XZ
??0swq_select_parse_options@@QEAA@XZ
??0swq_summary@@QEAA@$$QEAV0@@Z
??0swq_summary@@QEAA@AEBV0@@Z
??0swq_summary@@QEAA@XZ
??1?$unique_ptr@UCPLXMLNode@@UCPLXMLTreeCloserDeleter@@@std@@QEAA@XZ
??1ArrayContext@CPLJSonStreamingWriter@@QEAA@XZ
??1BoundingBox@TileMatrixSet@gdal@@QEAA@XZ
??1CPLConfigOptionSetter@@QEAA@XZ
??1CPLErrorHandlerAccumulatorStruct@@QEAA@XZ
??1CPLJSONArray@@QEAA@XZ
??1CPLJSONDocument@@QEAA@XZ
??1CPLJSONObject@@QEAA@XZ
??1CPLJSonStreamingParser@@UEAA@XZ
??1CPLJSonStreamingWriter@@QEAA@XZ
??1CPLJobQueue@@QEAA@XZ
??1CPLKeywordParser@@QEAA@XZ
??1CPLLocaleC@@QEAA@XZ
??1CPLLockHolder@@QEAA@XZ
??1CPLMutexHolder@@QEAA@XZ
??1CPLStringList@@QEAA@XZ
??1CPLThreadLocaleC@@QEAA@XZ
??1CPLWorkerThreadPool@@QEAA@XZ
??1CPLXMLTreeCloser@@QEAA@XZ
??1ConstFieldIterator@OGRFeature@@QEAA@XZ
??1ConstIterator@CPLJSONArray@@QEAA@XZ
??1ConstIterator@OGRCurve@@QEAA@XZ
??1ConstIterator@OGRSimpleCurve@@QEAA@XZ
??1DDFRecordIndex@@QEAA@XZ
??1FeatureIterator@OGRLayer@@QEAA@XZ
??1FieldValue@OGRFeature@@QEAA@XZ
??1GDALAbstractMDArray@@UEAA@XZ
??1GDALAllValidMaskBand@@UEAA@XZ
??1GDALAsyncReader@@UEAA@XZ
??1GDALAttribute@@UEAA@XZ
??1GDALAttributeNumeric@@UEAA@XZ
??1GDALAttributeString@@UEAA@XZ
??1GDALColorTable@@QEAA@XZ
??1GDALDataset@@UEAA@XZ
??1GDALDefaultOverviews@@QEAA@XZ
??1GDALDefaultRasterAttributeTable@@UEAA@XZ
??1GDALDimension@@UEAA@XZ
??1GDALDimensionWeakIndexingVar@@UEAA@XZ
??1GDALDriver@@UEAA@XZ
??1GDALDriverManager@@UEAA@XZ
??1GDALEDTComponent@@QEAA@XZ
??1GDALExtendedDataType@@QEAA@XZ
??1GDALGeorefPamDataset@@UEAA@XZ
??1GDALGroup@@UEAA@XZ
??1GDALIHasAttribute@@UEAA@XZ
??1GDALJP2AbstractDataset@@UEAA@XZ
??1GDALJP2Box@@QEAA@XZ
??1GDALJP2Metadata@@QEAA@XZ
??1GDALMDArray@@UEAA@XZ
??1GDALMDArrayRegularlySpaced@@UEAA@XZ
??1GDALMDReaderBase@@UEAA@XZ
??1GDALMDReaderManager@@UEAA@XZ
??1GDALMDReaderPleiades@@UEAA@XZ
??1GDALMajorObject@@UEAA@XZ
??1GDALMultiDomainMetadata@@QEAA@XZ
??1GDALNoDataMaskBand@@UEAA@XZ
??1GDALNoDataValuesMaskBand@@UEAA@XZ
??1GDALOpenInfo@@QEAA@XZ
??1GDALPamDataset@@UEAA@XZ
??1GDALPamMDArray@@UEAA@XZ
??1GDALPamMultiDim@@UEAA@XZ
??1GDALPamRasterBand@@UEAA@XZ
??1GDALProxyDataset@@UEAA@XZ
??1GDALProxyPoolDataset@@UEAA@XZ
??1GDALProxyPoolRasterBand@@UEAA@XZ
??1GDALProxyRasterBand@@UEAA@XZ
??1GDALRasterAttributeTable@@UEAA@XZ
??1GDALRasterBand@@UEAA@XZ
??1GDALRasterBlock@@UEAA@XZ
??1GDALRawResult@@QEAA@XZ
??1GDALRelationship@@QEAA@XZ
??1GDALWarpKernel@@UEAA@XZ
??1GDALWarpOperation@@UEAA@XZ
??1GMLFeature@@QEAA@XZ
??1GMLFeatureClass@@QEAA@XZ
??1GMLGeometryPropertyDefn@@QEAA@XZ
??1GMLPropertyDefn@@QEAA@XZ
??1GNMGenericNetwork@@UEAA@XZ
??1GNMGraph@@UEAA@XZ
??1GNMNetwork@@UEAA@XZ
??1GNMRule@@UEAA@XZ
??1IGMLReader@@UEAA@XZ
??1IOGRConstGeometryVisitor@@UEAA@XZ
??1IOGREditableLayerSynchronizer@@UEAA@XZ
??1IOGRGeometryVisitor@@UEAA@XZ
??1IOGRTransactionBehaviour@@UEAA@XZ
??1Iterator@Bands@GDALDataset@@QEAA@XZ
??1Iterator@Features@GDALDataset@@QEAA@XZ
??1Iterator@Layers@GDALDataset@@QEAA@XZ
??1Iterator@OGRSimpleCurve@@QEAA@XZ
??1MEMAbstractMDArray@@UEAA@XZ
??1MEMDataset@@UEAA@XZ
??1MEMGroup@@UEAA@XZ
??1MEMRasterBand@@UEAA@XZ
??1NASAKeywordHandler@@QEAA@XZ
??1OGRAbstractProxiedLayer@@UEAA@XZ
??1OGRArrowArrayHelper@@QEAA@XZ
??1OGRAttrIndex@@UEAA@XZ
??1OGRCircularString@@UEAA@XZ
??1OGRCodedFieldDomain@@UEAA@XZ
??1OGRCompoundCurve@@UEAA@XZ
??1OGRCoordinateTransformation@@UEAA@XZ
??1OGRCoordinateTransformationOptions@@QEAA@XZ
??1OGRCurve@@UEAA@XZ
??1OGRCurveCollection@@QEAA@XZ
??1OGRCurvePolygon@@UEAA@XZ
??1OGRDataSource@@UEAA@XZ
??1OGRDefaultConstGeometryVisitor@@UEAA@XZ
??1OGRDefaultGeometryVisitor@@UEAA@XZ
??1OGREditableLayer@@UEAA@XZ
??1OGRFeature@@UEAA@XZ
??1OGRFeatureDefn@@UEAA@XZ
??1OGRFeatureQuery@@QEAA@XZ
??1OGRFieldDefn@@QEAA@XZ
??1OGRFieldDomain@@UEAA@XZ
??1OGRGeomFieldDefn@@UEAA@XZ
??1OGRGeometry@@UEAA@XZ
??1OGRGeometryCollection@@UEAA@XZ
??1OGRGlobFieldDomain@@UEAA@XZ
??1OGRIteratedPoint@@UEAA@XZ
??1OGRLayer@@UEAA@XZ
??1OGRLayerAttrIndex@@UEAA@XZ
??1OGRLayerDecorator@@UEAA@XZ
??1OGRLayerPool@@QEAA@XZ
??1OGRLineString@@UEAA@XZ
??1OGRLinearRing@@UEAA@XZ
??1OGRMemLayer@@UEAA@XZ
??1OGRMultiCurve@@UEAA@XZ
??1OGRMultiLineString@@UEAA@XZ
??1OGRMultiPoint@@UEAA@XZ
??1OGRMultiPolygon@@UEAA@XZ
??1OGRMultiSurface@@UEAA@XZ
??1OGRMutexedDataSource@@UEAA@XZ
??1OGRMutexedLayer@@UEAA@XZ
??1OGRPoint@@UEAA@XZ
??1OGRPointIterator@@UEAA@XZ
??1OGRPolygon@@UEAA@XZ
??1OGRPolyhedralSurface@@UEAA@XZ
??1OGRRangeFieldDomain@@UEAA@XZ
??1OGRSFDriver@@UEAA@XZ
??1OGRSFDriverRegistrar@@AEAA@XZ
??1OGRSimpleCurve@@UEAA@XZ
??1OGRSpatialReference@@UEAA@XZ
??1OGRStyleBrush@@UEAA@XZ
??1OGRStyleLabel@@UEAA@XZ
??1OGRStyleMgr@@QEAA@XZ
??1OGRStylePen@@UEAA@XZ
??1OGRStyleSymbol@@UEAA@XZ
??1OGRStyleTable@@QEAA@XZ
??1OGRStyleTool@@UEAA@XZ
??1OGRSurface@@UEAA@XZ
??1OGRTriangle@@UEAA@XZ
??1OGRTriangulatedSurface@@UEAA@XZ
??1OGRUnionLayer@@UEAA@XZ
??1OGRUnionLayerGeomFieldDefn@@UEAA@XZ
??1OGR_SRSNode@@QEAA@XZ
??1ObjectContext@CPLJSonStreamingWriter@@QEAA@XZ
??1RawDataset@@UEAA@XZ
??1RawRasterBand@@UEAA@XZ
??1S57AttrInfo@@QEAA@XZ
??1S57ClassRegistrar@@QEAA@XZ
??1S57Reader@@QEAA@XZ
??1S57Writer@@QEAA@XZ
??1TileMatrix@TileMatrixSet@gdal@@QEAA@XZ
??1TileMatrixSet@gdal@@QEAA@XZ
??1TransformWithOptionsCache@OGRGeometryFactory@@QEAA@XZ
??1VRTComplexSource@@UEAA@XZ
??1VRTDataset@@UEAA@XZ
??1VRTDerivedRasterBand@@UEAA@XZ
??1VRTRasterBand@@UEAA@XZ
??1VRTRawRasterBand@@UEAA@XZ
??1VRTSimpleSource@@UEAA@XZ
??1VRTSource@@UEAA@XZ
??1VRTSourcedRasterBand@@UEAA@XZ
??1VRTWarpedDataset@@UEAA@XZ
??1VRTWarpedRasterBand@@UEAA@XZ
??1VSIDIR@@UEAA@XZ
??1VSIFileManager@@QEAA@XZ
??1VSIFilesystemHandler@@UEAA@XZ
??1VSIVirtualHandle@@UEAA@XZ
??1swq_custom_func_registrar@@UEAA@XZ
??1swq_expr_node@@QEAA@XZ
??1swq_select@@QEAA@XZ
??1swq_summary@@QEAA@XZ
??4?$_Unique_ptr_base@UCPLXMLNode@@UCPLXMLTreeCloserDeleter@@@std@@QEAAAEAV01@$$QEAV01@@Z
??4?$_Unique_ptr_base@UCPLXMLNode@@UCPLXMLTreeCloserDeleter@@@std@@QEAAAEAV01@AEBV01@@Z
??4?$unique_ptr@UCPLXMLNode@@UCPLXMLTreeCloserDeleter@@@std@@QEAAAEAV01@$$QEAV01@@Z
??4?$unique_ptr@UCPLXMLNode@@UCPLXMLTreeCloserDeleter@@@std@@QEAAAEAV01@$$T@Z
??4Bands@GDALDataset@@QEAAAEAV01@$$QEAV01@@Z
??4Bands@GDALDataset@@QEAAAEAV01@AEBV01@@Z
??4BoundingBox@TileMatrixSet@gdal@@QEAAAEAU012@$$QEAU012@@Z
??4BoundingBox@TileMatrixSet@gdal@@QEAAAEAU012@AEBU012@@Z
??4CPLErrorHandlerAccumulatorStruct@@QEAAAEAV0@$$QEAV0@@Z
??4CPLErrorHandlerAccumulatorStruct@@QEAAAEAV0@AEBV0@@Z
??4CPLFreeReleaser@@QEAAAEAU0@$$QEAU0@@Z
??4CPLFreeReleaser@@QEAAAEAU0@AEBU0@@Z
??4CPLJSONArray@@QEAAAEAV0@$$QEAV0@@Z
??4CPLJSONArray@@QEAAAEAV0@AEBV0@@Z
??4CPLJSONDocument@@QEAAAEAV0@$$QEAV0@@Z
??4CPLJSONDocument@@QEAAAEAV0@AEBV0@@Z
??4CPLJSONObject@@QEAAAEAV0@$$QEAV0@@Z
??4CPLJSONObject@@QEAAAEAV0@AEBV0@@Z
??4CPLStringList@@QEAAAEAV0@$$QEAV0@@Z
??4CPLStringList@@QEAAAEAV0@AEBV0@@Z
??4CPLStringList@@QEAAAEAV0@PEAPEAD@Z
??4CPLStringList@@QEAAAEAV0@PEBQEBD@Z
??4CPLXMLTreeCloser@@QEAAAEAV0@$$QEAV0@@Z
??4CPLXMLTreeCloserDeleter@@QEAAAEAU0@$$QEAU0@@Z
??4CPLXMLTreeCloserDeleter@@QEAAAEAU0@AEBU0@@Z
??4CSLDestroyReleaser@@QEAAAEAU0@$$QEAU0@@Z
??4CSLDestroyReleaser@@QEAAAEAU0@AEBU0@@Z
??4ConstIterator@OGRCurve@@QEAAAEAV01@$$QEAV01@@Z
??4DDFRecordIndex@@QEAAAEAV0@AEBV0@@Z
??4Features@GDALDataset@@QEAAAEAV01@$$QEAV01@@Z
??4Features@GDALDataset@@QEAAAEAV01@AEBV01@@Z
??4FieldValue@OGRFeature@@QEAAAEAV01@$$QEAV01@@Z
??4FieldValue@OGRFeature@@QEAAAEAV01@AEBV01@@Z
??4FieldValue@OGRFeature@@QEAAAEAV01@AEBV?$basic_string@DU?$char_traits@D@std@@V?$allocator@D@2@@std@@@Z
??4FieldValue@OGRFeature@@QEAAAEAV01@AEBV?$vector@HV?$allocator@H@std@@@std@@@Z
??4FieldValue@OGRFeature@@QEAAAEAV01@AEBV?$vector@NV?$allocator@N@std@@@std@@@Z
??4FieldValue@OGRFeature@@QEAAAEAV01@AEBV?$vector@V?$basic_string@DU?$char_traits@D@std@@V?$allocator@D@2@@std@@V?$allocator@V?$basic_string@DU?$char_traits@D@std@@V?$allocator@D@2@@std@@@2@@std@@@Z
??4FieldValue@OGRFeature@@QEAAAEAV01@AEBV?$vector@_JV?$allocator@_J@std@@@std@@@Z
??4FieldValue@OGRFeature@@QEAAAEAV01@H@Z
??4FieldValue@OGRFeature@@QEAAAEAV01@N@Z
??4FieldValue@OGRFeature@@QEAAAEAV01@PEBD@Z
??4FieldValue@OGRFeature@@QEAAAEAV01@PEBQEBD@Z
??4FieldValue@OGRFeature@@QEAAAEAV01@_J@Z
??4GDALAbstractMDArray@@QEAAAEAV0@AEBV0@@Z
??4GDALAttribute@@QEAAAEAV0@$$QEAV0@@Z
??4GDALAttribute@@QEAAAEAV0@AEBV0@@Z
??4GDALAttributeNumeric@@QEAAAEAV0@$$QEAV0@@Z
??4GDALAttributeString@@QEAAAEAV0@$$QEAV0@@Z
??4GDALColorTable@@QEAAAEAV0@AEBV0@@Z
??4GDALDatasetUniquePtrDeleter@@QEAAAEAU0@$$QEAU0@@Z
??4GDALDatasetUniquePtrDeleter@@QEAAAEAU0@AEBU0@@Z
??4GDALDefaultRasterAttributeTable@@QEAAAEAV0@AEBV0@@Z
??4GDALDimension@@QEAAAEAV0@AEBV0@@Z
??4GDALDimensionWeakIndexingVar@@QEAAAEAV0@$$QEAV0@@Z
??4GDALDimensionWeakIndexingVar@@QEAAAEAV0@AEBV0@@Z
??4GDALExtendedDataType@@QEAAAEAV0@$$QEAV0@@Z
??4GDALGroup@@QEAAAEAV0@AEBV0@@Z
??4GDALIHasAttribute@@QEAAAEAV0@AEBV0@@Z
??4GDALMDArray@@QEAAAEAV0@$$QEAV0@@Z
??4GDALMDArray@@QEAAAEAV0@AEBV0@@Z
??4GDALMDArrayRegularlySpaced@@QEAAAEAV0@$$QEAV0@@Z
??4GDALPamMDArray@@QEAAAEAV0@$$QEAV0@@Z
??4GDALPamMDArray@@QEAAAEAV0@AEBV0@@Z
??4GDALRasterAttributeTable@@QEAAAEAV0@AEBV0@@Z
??4GDALRawResult@@QEAAAEAV0@$$QEAV0@@Z
??4GDALRelationship@@QEAAAEAV0@$$QEAV0@@Z
??4GDALRelationship@@QEAAAEAV0@AEBV0@@Z
??4GMLFeature@@QEAAAEAV0@AEBV0@@Z
??4GMLFeatureClass@@QEAAAEAV0@AEBV0@@Z
??4GMLGeometryPropertyDefn@@QEAAAEAV0@AEBV0@@Z
??4GMLPropertyDefn@@QEAAAEAV0@AEBV0@@Z
??4GNMGraph@@QEAAAEAV0@AEBV0@@Z
??4GNMRule@@QEAAAEAV0@AEBV0@@Z
??4IGMLReader@@QEAAAEAV0@AEBV0@@Z
??4IOGRConstGeometryVisitor@@QEAAAEAV0@AEBV0@@Z
??4IOGREditableLayerSynchronizer@@QEAAAEAV0@AEBV0@@Z
??4IOGRGeometryVisitor@@QEAAAEAV0@AEBV0@@Z
??4IOGRTransactionBehaviour@@QEAAAEAV0@AEBV0@@Z
??4Iterator@Layers@GDALDataset@@QEAAAEAV012@$$QEAV012@@Z
??4Iterator@Layers@GDALDataset@@QEAAAEAV012@AEBV012@@Z
??4Layers@GDALDataset@@QEAAAEAV01@$$QEAV01@@Z
??4Layers@GDALDataset@@QEAAAEAV01@AEBV01@@Z
??4MEMGroup@@QEAAAEAV0@$$QEAV0@@Z
??4MEMGroup@@QEAAAEAV0@AEBV0@@Z
??4OGRAttrIndex@@QEAAAEAV0@AEBV0@@Z
??4OGRCircularString@@QEAAAEAV0@AEBV0@@Z
??4OGRCompoundCurve@@QEAAAEAV0@AEBV0@@Z
??4OGRCoordinateTransformation@@QEAAAEAV0@AEBV0@@Z
??4OGRCoordinateTransformationOptions@@QEAAAEAU0@AEBU0@@Z
??4OGRCurve@@QEAAAEAV0@AEBV0@@Z
??4OGRCurveCollection@@QEAAAEAV0@AEBV0@@Z
??4OGRCurvePolygon@@QEAAAEAV0@AEBV0@@Z
??4OGRDefaultConstGeometryVisitor@@QEAAAEAV0@$$QEAV0@@Z
??4OGRDefaultConstGeometryVisitor@@QEAAAEAV0@AEBV0@@Z
??4OGRDefaultGeometryVisitor@@QEAAAEAV0@$$QEAV0@@Z
??4OGRDefaultGeometryVisitor@@QEAAAEAV0@AEBV0@@Z
??4OGREnvelope3D@@QEAAAEAV0@AEBV0@@Z
??4OGREnvelope@@QEAAAEAV0@AEBV0@@Z
??4OGRExpatUniquePtrDeleter@@QEAAAEAU0@$$QEAU0@@Z
??4OGRExpatUniquePtrDeleter@@QEAAAEAU0@AEBU0@@Z
??4OGRFeatureUniquePtrDeleter@@QEAAAEAU0@$$QEAU0@@Z
??4OGRFeatureUniquePtrDeleter@@QEAAAEAU0@AEBU0@@Z
??4OGRFieldDomain@@QEAAAEAV0@AEBV0@@Z
??4OGRGeometry@@QEAAAEAV0@AEBV0@@Z
??4OGRGeometryCollection@@QEAAAEAV0@AEBV0@@Z
??4OGRGeometryFactory@@QEAAAEAV0@$$QEAV0@@Z
??4OGRGeometryFactory@@QEAAAEAV0@AEBV0@@Z
??4OGRGeometryUniquePtrDeleter@@QEAAAEAU0@$$QEAU0@@Z
??4OGRGeometryUniquePtrDeleter@@QEAAAEAU0@AEBU0@@Z
??4OGRLineString@@QEAAAEAV0@AEBV0@@Z
??4OGRLinearRing@@QEAAAEAV0@AEBV0@@Z
??4OGRMultiCurve@@QEAAAEAV0@AEBV0@@Z
??4OGRMultiLineString@@QEAAAEAV0@AEBV0@@Z
??4OGRMultiPoint@@QEAAAEAV0@AEBV0@@Z
??4OGRMultiPolygon@@QEAAAEAV0@AEBV0@@Z
??4OGRMultiSurface@@QEAAAEAV0@AEBV0@@Z
??4OGRPoint@@QEAAAEAV0@AEBV0@@Z
??4OGRPointIterator@@QEAAAEAV0@AEBV0@@Z
??4OGRPolygon@@QEAAAEAV0@AEBV0@@Z
??4OGRPolyhedralSurface@@QEAAAEAV0@AEBV0@@Z
??4OGRPreparedGeometryUniquePtrDeleter@@QEAAAEAU0@$$QEAU0@@Z
??4OGRPreparedGeometryUniquePtrDeleter@@QEAAAEAU0@AEBU0@@Z
??4OGRSFDriverRegistrar@@QEAAAEAV0@AEBV0@@Z
??4OGRSimpleCurve@@QEAAAEAV0@AEBV0@@Z
??4OGRSpatialReference@@QEAAAEAV0@$$QEAV0@@Z
??4OGRSpatialReference@@QEAAAEAV0@AEBV0@@Z
??4OGRSurface@@QEAAAEAV0@$$QEAV0@@Z
??4OGRSurface@@QEAAAEAV0@AEBV0@@Z
??4OGRTriangle@@QEAAAEAV0@AEBV0@@Z
??4OGRTriangulatedSurface@@QEAAAEAV0@AEBV0@@Z
??4OGRWktOptions@@QEAAAEAU0@AEBU0@@Z
??4S57AttrInfo@@QEAAAEAV0@$$QEAV0@@Z
??4S57AttrInfo@@QEAAAEAV0@AEBV0@@Z
??4S57ClassRegistrar@@QEAAAEAV0@AEBV0@@Z
??4S57Reader@@QEAAAEAV0@AEBV0@@Z
??4S57Writer@@QEAAAEAV0@AEBV0@@Z
??4TileMatrix@TileMatrixSet@gdal@@QEAAAEAU012@$$QEAU012@@Z
??4TileMatrix@TileMatrixSet@gdal@@QEAAAEAU012@AEBU012@@Z
??4TileMatrixSet@gdal@@QEAAAEAV01@$$QEAV01@@Z
??4TileMatrixSet@gdal@@QEAAAEAV01@AEBV01@@Z
??4VRTSource@@QEAAAEAV0@AEBV0@@Z
??4VSIFilesystemHandler@@QEAAAEAV0@AEBV0@@Z
??4VSIVirtualHandle@@QEAAAEAV0@AEBV0@@Z
??4VariableMatrixWidth@TileMatrix@TileMatrixSet@gdal@@QEAAAEAU0123@$$QEAU0123@@Z
??4VariableMatrixWidth@TileMatrix@TileMatrixSet@gdal@@QEAAAEAU0123@AEBU0123@@Z
??4swq_custom_func_registrar@@QEAAAEAV0@AEBV0@@Z
??4swq_field_list@@QEAAAEAV0@$$QEAV0@@Z
??4swq_field_list@@QEAAAEAV0@AEBV0@@Z
??4swq_op_registrar@@QEAAAEAV0@$$QEAV0@@Z
??4swq_op_registrar@@QEAAAEAV0@AEBV0@@Z
??4swq_parse_context@@QEAAAEAV0@$$QEAV0@@Z
??4swq_parse_context@@QEAAAEAV0@AEBV0@@Z
??4swq_select_parse_options@@QEAAAEAV0@$$QEAV0@@Z
??4swq_select_parse_options@@QEAAAEAV0@AEBV0@@Z
??4swq_summary@@QEAAAEAV0@$$QEAV0@@Z
??4swq_summary@@QEAAAEAV0@AEBV0@@Z
??8ConstIterator@CPLJSONArray@@QEBA_NAEBV01@@Z
??8GDALEDTComponent@@QEBA_NAEBV0@@Z
??8GDALExtendedDataType@@QEBA_NAEBV0@@Z
??8OGREnvelope@@QEBA_NAEBV0@@Z
??8OGRGeometry@@QEBA_NAEBV0@@Z
??9ConstFieldIterator@OGRFeature@@QEBA_NAEBV01@@Z
??9ConstIterator@CPLJSONArray@@QEBA_NAEBV01@@Z
??9ConstIterator@OGRCurve@@QEBA_NAEBV01@@Z
??9ConstIterator@OGRSimpleCurve@@QEBA_NAEBV01@@Z
??9FeatureIterator@OGRLayer@@QEBA_NAEBV01@@Z
??9GDALExtendedDataType@@QEBA_NAEBV0@@Z
??9Iterator@Bands@GDALDataset@@QEBA_NAEBV012@@Z
??9Iterator@Features@GDALDataset@@QEBA_NAEBV012@@Z
??9Iterator@Layers@GDALDataset@@QEBA_NAEBV012@@Z
??9Iterator@OGRSimpleCurve@@QEBA_NAEBV01@@Z
??9OGREnvelope@@QEBA_NAEBV0@@Z
??9OGRGeometry@@QEBA_NAEBV0@@Z
??ABands@GDALDataset@@QEAAPEAVGDALRasterBand@@H@Z
??ABands@GDALDataset@@QEAAPEAVGDALRasterBand@@_K@Z
??ACPLJSONArray@@QEAA?AVCPLJSONObject@@H@Z
??ACPLJSONArray@@QEBA?BVCPLJSONObject@@H@Z
??ACPLJSONObject@@QEBA?AV0@AEBV?$basic_string@DU?$char_traits@D@std@@V?$allocator@D@2@@std@@@Z
??ACPLStringList@@QEAAPEADH@Z
??ACPLStringList@@QEAAPEAD_K@Z
??ACPLStringList@@QEBAPEBDH@Z
??ACPLStringList@@QEBAPEBDPEBD@Z
??ACPLStringList@@QEBAPEBD_K@Z
??AGDALMDArray@@QEBA?AV?$shared_ptr@VGDALMDArray@@@std@@AEBV?$basic_string@DU?$char_traits@D@std@@V?$allocator@D@2@@2@@Z
??AGDALRawResult@@QEBAAEBE_K@Z
??ALayers@GDALDataset@@QEAAPEAVOGRLayer@@H@Z
??ALayers@GDALDataset@@QEAAPEAVOGRLayer@@PEBD@Z
??ALayers@GDALDataset@@QEAAPEAVOGRLayer@@_K@Z
??AOGRFeature@@QEAA?AVFieldValue@0@H@Z
??AOGRFeature@@QEAA?AVFieldValue@0@PEBD@Z
??AOGRFeature@@QEBA?BVFieldValue@0@H@Z
??AOGRFeature@@QEBA?BVFieldValue@0@PEBD@Z
??B?$unique_ptr@UCPLXMLNode@@UCPLXMLTreeCloserDeleter@@@std@@QEBA_NXZ
??BCPLStringList@@QEAAPEAPEADXZ
??BCPLStringList@@QEBAPEBQEBDXZ
??BFieldValue@OGRFeature@@QEBAAEBV?$vector@HV?$allocator@H@std@@@std@@XZ
??BFieldValue@OGRFeature@@QEBAAEBV?$vector@NV?$allocator@N@std@@@std@@XZ
??BFieldValue@OGRFeature@@QEBAAEBV?$vector@V?$basic_string@DU?$char_traits@D@std@@V?$allocator@D@2@@std@@V?$allocator@V?$basic_string@DU?$char_traits@D@std@@V?$allocator@D@2@@std@@@2@@std@@XZ
??BFieldValue@OGRFeature@@QEBAAEBV?$vector@_JV?$allocator@_J@std@@@std@@XZ
??BFieldValue@OGRFeature@@QEBAHXZ
??BFieldValue@OGRFeature@@QEBANXZ
??BFieldValue@OGRFeature@@QEBAPEBDXZ
??BFieldValue@OGRFeature@@QEBAPEBQEBDXZ
??BFieldValue@OGRFeature@@QEBA_JXZ
??BGNMRule@@QEBAPEBDXZ
??C?$unique_ptr@UCPLXMLNode@@UCPLXMLTreeCloserDeleter@@@std@@QEBAPEAUCPLXMLNode@@XZ
??D?$unique_ptr@UCPLXMLNode@@UCPLXMLTreeCloserDeleter@@@std@@QEBAAEAUCPLXMLNode@@XZ
??DConstFieldIterator@OGRFeature@@QEBAAEBVFieldValue@1@XZ
??DConstIterator@CPLJSONArray@@QEBAAEAVCPLJSONObject@@XZ
??DConstIterator@OGRCurve@@QEBAAEBVOGRPoint@@XZ
??DConstIterator@OGRSimpleCurve@@QEBAAEBVOGRPoint@@XZ
??DFeatureIterator@OGRLayer@@QEAAAEAV?$unique_ptr@VOGRFeature@@UOGRFeatureUniquePtrDeleter@@@std@@XZ
??DIterator@Bands@GDALDataset@@QEAAPEAVGDALRasterBand@@XZ
??DIterator@Features@GDALDataset@@QEBAAEBUFeatureLayerPair@2@XZ
??DIterator@Layers@GDALDataset@@QEBAPEAVOGRLayer@@XZ
??DIterator@OGRSimpleCurve@@QEAAAEAVOGRIteratedPoint@@XZ
??EConstFieldIterator@OGRFeature@@QEAAAEAV01@XZ
??EConstIterator@CPLJSONArray@@QEAAAEAV01@XZ
??EConstIterator@OGRCurve@@QEAAAEAV01@XZ
??EConstIterator@OGRSimpleCurve@@QEAAAEAV01@XZ
??EFeatureIterator@OGRLayer@@QEAAAEAV01@XZ
??EIterator@Bands@GDALDataset@@QEAAAEAV012@XZ
??EIterator@Features@GDALDataset@@QEAAAEAV012@XZ
??EIterator@Layers@GDALDataset@@QEAA?AV012@H@Z
??EIterator@Layers@GDALDataset@@QEAAAEAV012@XZ
??EIterator@OGRSimpleCurve@@QEAAAEAV01@XZ
??RCPLFreeReleaser@@QEBAXPEAX@Z
??RCPLXMLTreeCloserDeleter@@QEBAXPEAUCPLXMLNode@@@Z
??RCSLDestroyReleaser@@QEBAXPEAPEAD@Z
??RGDALDatasetUniquePtrDeleter@@QEBAXPEAVGDALDataset@@@Z
??ROGRExpatUniquePtrDeleter@@QEBAXPEAUXML_ParserStruct@@@Z
??ROGRFeatureUniquePtrDeleter@@QEBAXPEAVOGRFeature@@@Z
??ROGRGeometryUniquePtrDeleter@@QEBAXPEAVOGRGeometry@@@Z
??ROGRPreparedGeometryUniquePtrDeleter@@QEBAXPEAU_OGRPreparedGeometry@@@Z
??_7CPLJSonStreamingParser@@6B@
??_7GDALAbstractMDArray@@6B@
??_7GDALAllValidMaskBand@@6B@
??_7GDALAsyncReader@@6B@
??_7GDALAttribute@@6B@
??_7GDALAttributeNumeric@@6B@
??_7GDALAttributeString@@6B@
??_7GDALDataset@@6B@
??_7GDALDefaultRasterAttributeTable@@6B@
??_7GDALDimension@@6B@
??_7GDALDimensionWeakIndexingVar@@6B@
??_7GDALDriver@@6B@
??_7GDALDriverManager@@6B@
??_7GDALGeorefPamDataset@@6B@
??_7GDALGroup@@6B@
??_7GDALIHasAttribute@@6B@
??_7GDALJP2AbstractDataset@@6B@
??_7GDALMDArray@@6BGDALAbstractMDArray@@@
??_7GDALMDArray@@6BGDALIHasAttribute@@@
??_7GDALMDArrayRegularlySpaced@@6BGDALAbstractMDArray@@@
??_7GDALMDArrayRegularlySpaced@@6BGDALIHasAttribute@@@
??_7GDALMDReaderBase@@6B@
??_7GDALMDReaderManager@@6B@
??_7GDALMDReaderPleiades@@6B@
??_7GDALMajorObject@@6B@
??_7GDALNoDataMaskBand@@6B@
??_7GDALNoDataValuesMaskBand@@6B@
??_7GDALPamDataset@@6B@
??_7GDALPamMDArray@@6BGDALAbstractMDArray@@@
??_7GDALPamMDArray@@6BGDALIHasAttribute@@@
??_7GDALPamMultiDim@@6B@
??_7GDALPamRasterBand@@6B@
??_7GDALProxyDataset@@6B@
??_7GDALProxyPoolDataset@@6B@
??_7GDALProxyPoolRasterBand@@6B@
??_7GDALProxyRasterBand@@6B@
??_7GDALRasterAttributeTable@@6B@
??_7GDALRasterBand@@6B@
??_7GDALRasterBlock@@6B@
??_7GDALWarpKernel@@6B@
??_7GDALWarpOperation@@6B@
??_7GNMGenericNetwork@@6B@
??_7GNMGraph@@6B@
??_7GNMNetwork@@6B@
??_7GNMRule@@6B@
??_7IGMLReader@@6B@
??_7IOGRConstGeometryVisitor@@6B@
??_7IOGREditableLayerSynchronizer@@6B@
??_7IOGRGeometryVisitor@@6B@
??_7IOGRTransactionBehaviour@@6B@
??_7MEMAbstractMDArray@@6B@
??_7MEMDataset@@6B@
??_7MEMGroup@@6B@
??_7MEMRasterBand@@6B@
??_7OGRAbstractProxiedLayer@@6B@
??_7OGRAttrIndex@@6B@
??_7OGRCircularString@@6B@
??_7OGRCodedFieldDomain@@6B@
??_7OGRCompoundCurve@@6B@
??_7OGRCoordinateTransformation@@6B@
??_7OGRCurve@@6B@
??_7OGRCurvePolygon@@6B@
??_7OGRDataSource@@6B@
??_7OGRDefaultConstGeometryVisitor@@6B@
??_7OGRDefaultGeometryVisitor@@6B@
??_7OGREditableLayer@@6B@
??_7OGRFeature@@6B@
??_7OGRFeatureDefn@@6B@
??_7OGRFieldDomain@@6B@
??_7OGRGeomFieldDefn@@6B@
??_7OGRGeometry@@6B@
??_7OGRGeometryCollection@@6B@
??_7OGRGlobFieldDomain@@6B@
??_7OGRIteratedPoint@@6B@
??_7OGRLayer@@6B@
??_7OGRLayerAttrIndex@@6B@
??_7OGRLayerDecorator@@6B@
??_7OGRLineString@@6B@
??_7OGRLinearRing@@6B@
??_7OGRMemLayer@@6B@
??_7OGRMultiCurve@@6B@
??_7OGRMultiLineString@@6B@
??_7OGRMultiPoint@@6B@
??_7OGRMultiPolygon@@6B@
??_7OGRMultiSurface@@6B@
??_7OGRMutexedDataSource@@6B@
??_7OGRMutexedLayer@@6B@
??_7OGRPoint@@6B@
??_7OGRPointIterator@@6B@
??_7OGRPolygon@@6B@
??_7OGRPolyhedralSurface@@6B@
??_7OGRRangeFieldDomain@@6B@
??_7OGRSFDriver@@6B@
??_7OGRSimpleCurve@@6B@
??_7OGRSpatialReference@@6B@
??_7OGRStyleBrush@@6B@
??_7OGRStyleLabel@@6B@
??_7OGRStylePen@@6B@
??_7OGRStyleSymbol@@6B@
??_7OGRStyleTool@@6B@
??_7OGRSurface@@6B@
??_7OGRTriangle@@6B@
??_7OGRTriangulatedSurface@@6B@
??_7OGRUnionLayer@@6B@
??_7OGRUnionLayerGeomFieldDefn@@6B@
??_7RawDataset@@6B@
??_7RawRasterBand@@6B@
??_7VRTComplexSource@@6B@
??_7VRTDataset@@6B@
??_7VRTDerivedRasterBand@@6B@
??_7VRTRasterBand@@6B@
??_7VRTRawRasterBand@@6B@
??_7VRTSimpleSource@@6B@
??_7VRTSource@@6B@
??_7VRTSourcedRasterBand@@6B@
??_7VRTWarpedDataset@@6B@
??_7VRTWarpedRasterBand@@6B@
??_7VSIDIR@@6B@
??_7VSIFilesystemHandler@@6B@
??_7VSIVirtualHandle@@6B@
??_7swq_custom_func_registrar@@6B@
??_8GDALAttributeNumeric@@7B@
??_8GDALAttributeString@@7B@
??_8GDALMDArrayRegularlySpaced@@7B@
??_8MEMAbstractMDArray@@7B@
??_DGDALAttributeNumeric@@QEAAXXZ
??_DGDALAttributeString@@QEAAXXZ
??_DGDALMDArrayRegularlySpaced@@QEAAXXZ
??_DMEMAbstractMDArray@@QEAAXXZ
??_FGDALColorTable@@QEAAXXZ
??_FGDALJP2Box@@QEAAXXZ
??_FGMLFeatureClass@@QEAAXXZ
??_FOGRFeatureDefn@@QEAAXXZ
??_FOGRLayerPool@@QEAAXXZ
??_FOGRSpatialReference@@QEAAXXZ
??_FOGRStyleMgr@@QEAAXXZ
??_FOGR_SRSNode@@QEAAXXZ
?AbortPendingUploads@VSIFilesystemHandler@@UEAA_NPEBD@Z
?AbortSQL@GDALDataset@@UEAAHXZ
?AccessBlock@RawRasterBand@@IEAA?AW4CPLErr@@_K0PEAX@Z
?AccessLine@RawRasterBand@@QEAA?AW4CPLErr@@H@Z
?AcquireMutex@GDALDataset@@IEAAHXZ
?Add@CPLJSONArray@@QEAAXAEBV?$basic_string@DU?$char_traits@D@std@@V?$allocator@D@2@@std@@@Z
?Add@CPLJSONArray@@QEAAXAEBVCPLJSONObject@@@Z
?Add@CPLJSONArray@@QEAAXH@Z
?Add@CPLJSONArray@@QEAAXN@Z
?Add@CPLJSONArray@@QEAAXPEBD@Z
?Add@CPLJSONArray@@QEAAX_J@Z
?Add@CPLJSONArray@@QEAAX_N@Z
?Add@CPLJSONObject@@QEAAXAEBV?$basic_string@DU?$char_traits@D@std@@V?$allocator@D@2@@std@@0@Z
?Add@CPLJSONObject@@QEAAXAEBV?$basic_string@DU?$char_traits@D@std@@V?$allocator@D@2@@std@@AEBV1@@Z
?Add@CPLJSONObject@@QEAAXAEBV?$basic_string@DU?$char_traits@D@std@@V?$allocator@D@2@@std@@AEBVCPLJSONArray@@@Z
?Add@CPLJSONObject@@QEAAXAEBV?$basic_string@DU?$char_traits@D@std@@V?$allocator@D@2@@std@@H@Z
?Add@CPLJSONObject@@QEAAXAEBV?$basic_string@DU?$char_traits@D@std@@V?$allocator@D@2@@std@@N@Z
?Add@CPLJSONObject@@QEAAXAEBV?$basic_string@DU?$char_traits@D@std@@V?$allocator@D@2@@std@@PEBD@Z
?Add@CPLJSONObject@@QEAAXAEBV?$basic_string@DU?$char_traits@D@std@@V?$allocator@D@2@@std@@_J@Z
?Add@CPLJSONObject@@QEAAXAEBV?$basic_string@DU?$char_traits@D@std@@V?$allocator@D@2@@std@@_N@Z
?Add@CPLJSonStreamingWriter@@QEAAXAEBV?$basic_string@DU?$char_traits@D@std@@V?$allocator@D@2@@std@@@Z
?Add@CPLJSonStreamingWriter@@QEAAXH@Z
?Add@CPLJSonStreamingWriter@@QEAAXI@Z
?Add@CPLJSonStreamingWriter@@QEAAXMH@Z
?Add@CPLJSonStreamingWriter@@QEAAXNH@Z
?Add@CPLJSonStreamingWriter@@QEAAXPEBD@Z
?Add@CPLJSonStreamingWriter@@QEAAX_J@Z
?Add@CPLJSonStreamingWriter@@QEAAX_K@Z
?Add@CPLJSonStreamingWriter@@QEAAX_N@Z
?AddAttribute@GDALMDArrayRegularlySpaced@@QEAAXAEBV?$shared_ptr@VGDALAttribute@@@std@@@Z
?AddBand@GDALDataset@@UEAA?AW4CPLErr@@W4GDALDataType@@PEAPEAD@Z
?AddBand@MEMDataset@@UEAA?AW4CPLErr@@W4GDALDataType@@PEAPEAD@Z
?AddBand@VRTDataset@@UEAA?AW4CPLErr@@W4GDALDataType@@PEAPEAD@Z
?AddBand@VRTWarpedDataset@@UEAA?AW4CPLErr@@W4GDALDataType@@PEAPEAD@Z
?AddBlockToFreeList@GDALRasterBand@@IEAAXPEAVGDALRasterBlock@@@Z
?AddChild@OGR_SRSNode@@QEAAXPEAV1@@Z
?AddComplexSource@VRTSourcedRasterBand@@QEAA?AW4CPLErr@@PEAVGDALRasterBand@@NNNNNNNNNNNH@Z
?AddComplexSource@VRTSourcedRasterBand@@QEAA?AW4CPLErr@@PEBDHNNNNNNNNNNNH@Z
?AddEdge@GNMGraph@@UEAAX_J00_NNN@Z
?AddFeatureDefn@S57Reader@@QEAAXPEAVOGRFeatureDefn@@@Z
?AddFeatureGlobalFID@GNMGenericNetwork@@UEAA?AW4CPLErr@@_JPEBD@Z
?AddFieldDefn@OGRFeatureDefn@@UEAAXPEBVOGRFieldDefn@@@Z
?AddFieldDomain@GDALDataset@@UEAA_N$$QEAV?$unique_ptr@VOGRFieldDomain@@U?$default_delete@VOGRFieldDomain@@@std@@@std@@AEAV?$basic_string@DU?$char_traits@D@std@@V?$allocator@D@2@@3@@Z
?AddFieldDomain@OGRMutexedDataSource@@UEAA_N$$QEAV?$unique_ptr@VOGRFieldDomain@@U?$default_delete@VOGRFieldDomain@@@std@@@std@@AEAV?$basic_string@DU?$char_traits@D@std@@V?$allocator@D@2@@3@@Z
?AddFuncSource@VRTSourcedRasterBand@@QEAA?AW4CPLErr@@P6A?AW42@PEAXHHHH0@Z0N@Z
?AddGeomFieldDefn@OGRFeatureDefn@@UEAAX$$QEAV?$unique_ptr@VOGRGeomFieldDefn@@U?$default_delete@VOGRGeomFieldDefn@@@std@@@std@@@Z
?AddGeomFieldDefn@OGRFeatureDefn@@UEAAXPEBVOGRGeomFieldDefn@@@Z
?AddGeometry@GMLFeature@@QEAAXPEAUCPLXMLNode@@@Z
?AddGeometryProperty@GMLFeatureClass@@QEAAHPEAVGMLGeometryPropertyDefn@@@Z
?AddGuessedTOWGS84@OGRSpatialReference@@QEAAHXZ
?AddLock@GDALRasterBlock@@QEAAHXZ
?AddM@OGRSimpleCurve@@IEAAXXZ
?AddMEMBand@MEMDataset@@QEAAXPEAX@Z
?AddMaskBandSource@VRTSourcedRasterBand@@QEAA?AW4CPLErr@@PEAVGDALRasterBand@@NNNNNNNN@Z
?AddNameValue@CPLStringList@@QEAAAEAV1@PEBD0@Z
?AddNoSplitName@CPLJSONObject@@QEAAXAEBV?$basic_string@DU?$char_traits@D@std@@V?$allocator@D@2@@std@@AEBV1@@Z
?AddNull@CPLJSONObject@@QEAAXAEBV?$basic_string@DU?$char_traits@D@std@@V?$allocator@D@2@@std@@@Z
?AddNull@CPLJSonStreamingWriter@@QEAAXXZ
?AddOBProperty@GMLFeature@@QEAAXPEBD0@Z
?AddObjKey@CPLJSonStreamingWriter@@QEAAXAEBV?$basic_string@DU?$char_traits@D@std@@V?$allocator@D@2@@std@@@Z
?AddPart@OGRStyleMgr@@QEAAHPEAVOGRStyleTool@@@Z
?AddPart@OGRStyleMgr@@QEAAHPEBD@Z
?AddPixelFunction@VRTDerivedRasterBand@@SA?AW4CPLErr@@PEBDP6A?AW42@PEAPEAXHPEAXHHW4GDALDataType@@3HH@Z@Z
?AddPixelFunction@VRTDerivedRasterBand@@SA?AW4CPLErr@@PEBDP6A?AW42@PEAPEAXHPEAXHHW4GDALDataType@@3HHPEBQEBD@Z0@Z
?AddProperty@GMLFeatureClass@@QEAAHPEAVGMLPropertyDefn@@H@Z
?AddRecord@DDFRecordIndex@@QEAAXHPEAVDDFRecord@@@Z
?AddRelationship@GDALDataset@@UEAA_N$$QEAV?$unique_ptr@VGDALRelationship@@U?$default_delete@VGDALRelationship@@@std@@@std@@AEAV?$basic_string@DU?$char_traits@D@std@@V?$allocator@D@2@@3@@Z
?AddSimpleSource@VRTSourcedRasterBand@@QEAA?AW4CPLErr@@PEAVGDALRasterBand@@NNNNNNNNPEBDN@Z
?AddSimpleSource@VRTSourcedRasterBand@@QEAA?AW4CPLErr@@PEBDHNNNNNNNN0N@Z
?AddSource@VRTSourcedRasterBand@@QEAA?AW4CPLErr@@PEAVVRTSource@@@Z
?AddSrcBand@GDALProxyPoolDataset@@QEAAXHW4GDALDataType@@HH@Z
?AddSrcBandDescription@GDALProxyPoolDataset@@QEAAXW4GDALDataType@@HH@Z
?AddSrcMaskBandDescription@GDALProxyPoolRasterBand@@QEAAXW4GDALDataType@@HH@Z
?AddSrcMaskBandDescriptionFromUnderlying@GDALProxyPoolRasterBand@@QEAAXXZ
?AddString@CPLStringList@@QEAAAEAV1@PEBD@Z
?AddStringDirectly@CPLStringList@@QEAAAEAV1@PEAD@Z
?AddStyle@OGRStyleMgr@@QEAAHPEBD0@Z
?AddStyle@OGRStyleTable@@QEAAHPEBD0@Z
?AddToDatasetOpenList@GDALDataset@@AEAAXXZ
?AddVertex@GNMGraph@@UEAAX_J@Z
?AddVirtualOverview@VRTDataset@@AEAA_NHPEBD@Z
?AddXMLNameValueToList@GDALMDReaderBase@@MEAAPEAPEADPEAPEADPEBD1@Z
?AdvanceChar@CPLJSonStreamingParser@@AEAAXAEAPEBDAEA_K@Z
?AdviseRead@GDALDataset@@UEAA?AW4CPLErr@@HHHHHHW4GDALDataType@@HPEAHPEAPEAD@Z
?AdviseRead@GDALMDArray@@QEBA_NPEB_K0PEBQEBD@Z
?AdviseRead@GDALProxyDataset@@UEAA?AW4CPLErr@@HHHHHHW4GDALDataType@@HPEAHPEAPEAD@Z
?AdviseRead@GDALProxyRasterBand@@UEAA?AW4CPLErr@@HHHHHHW4GDALDataType@@PEAPEAD@Z
?AdviseRead@GDALRasterBand@@UEAA?AW4CPLErr@@HHHHHHW4GDALDataType@@PEAPEAD@Z
?AdviseRead@VRTDataset@@UEAA?AW4CPLErr@@HHHHHHW4GDALDataType@@HPEAHPEAPEAD@Z
?AlterFieldDefn@OGREditableLayer@@UEAAHHPEAVOGRFieldDefn@@H@Z
?AlterFieldDefn@OGRLayer@@UEAAHHPEAVOGRFieldDefn@@H@Z
?AlterFieldDefn@OGRLayerDecorator@@UEAAHHPEAVOGRFieldDefn@@H@Z
?AlterFieldDefn@OGRMemLayer@@UEAAHHPEAVOGRFieldDefn@@H@Z
?AlterFieldDefn@OGRMutexedLayer@@UEAAHHPEAVOGRFieldDefn@@H@Z
?AlterGeomFieldDefn@OGREditableLayer@@UEAAHHPEBVOGRGeomFieldDefn@@H@Z
?AlterGeomFieldDefn@OGRLayer@@UEAAHHPEBVOGRGeomFieldDefn@@H@Z
?AlterGeomFieldDefn@OGRLayerDecorator@@UEAAHHPEBVOGRGeomFieldDefn@@H@Z
?AlterGeomFieldDefn@OGRMemLayer@@UEAAHHPEBVOGRGeomFieldDefn@@H@Z
?AlterGeomFieldDefn@OGRMutexedLayer@@UEAAHHPEBVOGRGeomFieldDefn@@H@Z
?AnalyseColumns@GDALDefaultRasterAttributeTable@@AEAAXXZ
?AnalysePropertyValue@GMLPropertyDefn@@QEAAXPEBUGMLProperty@@_N@Z
?Anchor@OGRStyleLabel@@QEAAHAEAH@Z
?Angle@OGRStyleBrush@@QEAANAEAH@Z
?Angle@OGRStyleLabel@@QEAANAEAH@Z
?Angle@OGRStyleSymbol@@QEAANAEAH@Z
?AppendField@OGRFeature@@QEAAXXZ
?AppendUInt16@GDALJP2Box@@QEAAXG@Z
?AppendUInt32@GDALJP2Box@@QEAAXI@Z
?AppendUInt8@GDALJP2Box@@QEAAXE@Z
?AppendWritableData@GDALJP2Box@@QEAAXHPEBX@Z
?ApplyAttributeFilterToSrcLayer@OGRUnionLayer@@IEAAXH@Z
?ApplyObjectClassAttributes@S57Reader@@AEAAXPEAVDDFRecord@@PEAVOGRFeature@@@Z
?ApplyRecordUpdate@S57Reader@@AEAA_NPEAVDDFRecord@@0@Z
?ApplyUpdates@S57Reader@@QEAA_NPEAVDDFModule@@@Z
?AreOverviewsEnabled@GDALDataset@@QEBA_NXZ
?AreSiblingFilesLoaded@GDALOpenInfo@@QEBA_NXZ
?AreValuesUnchanged@VRTComplexSource@@QEBA_NXZ
?AsClassicDataset@GDALMDArray@@UEBAPEAVGDALDataset@@_K0@Z
?AsMDArray@GDALRasterBand@@QEBA?AV?$shared_ptr@VGDALMDArray@@@std@@XZ
?AssembleAreaGeometry@S57Reader@@AEAAXPEAVDDFRecord@@PEAVOGRFeature@@@Z
?AssembleFeature@S57Reader@@AEAAPEAVOGRFeature@@PEAVDDFRecord@@PEAVOGRFeatureDefn@@@Z
?AssembleLineGeometry@S57Reader@@AEAAXPEAVDDFRecord@@PEAVOGRFeature@@@Z
?AssemblePointGeometry@S57Reader@@AEAAXPEAVDDFRecord@@PEAVOGRFeature@@@Z
?AssembleSoundingGeometry@S57Reader@@AEAAXPEAVDDFRecord@@PEAVOGRFeature@@@Z
?Assign@CPLStringList@@QEAAAEAV1@PEAPEADH@Z
?Assign@FieldValue@OGRFeature@@AEAAAEAV12@AEBV12@@Z
?AttributeFilterEvaluationNeedsGeometry@OGRLayer@@QEAAHXZ
?AutoIdentifyEPSG@OGRSpatialReference@@QEAAHXZ
?AutoLoadDrivers@GDALDriverManager@@QEAAXXZ
?AutoLoadPythonDrivers@GDALDriverManager@@SAXXZ
?AutoSkipDrivers@GDALDriverManager@@QEAAXXZ
?AutoWarpLayerIfNecessary@OGRUnionLayer@@IEAAXH@Z
?BIPWriteBlock@RawRasterBand@@AEAA?AW4CPLErr@@HHPEBX@Z
?BackColor@OGRStyleBrush@@QEAAPEBDAEAH@Z
?BackColor@OGRStyleLabel@@QEAAPEBDAEAH@Z
?BandBasedRasterIO@GDALDataset@@IEAA?AW4CPLErr@@W4GDALRWFlag@@HHHHPEAXHHW4GDALDataType@@HPEAH_J44PEAUGDALRasterIOExtraArg@@@Z
?BeginAsyncReader@GDALDataset@@UEAAPEAVGDALAsyncReader@@HHHHPEAXHHW4GDALDataType@@HPEAHHHHPEAPEAD@Z
?BlockBasedFlushCache@GDALDataset@@IEAAX_N@Z
?BlockBasedRasterIO@GDALDataset@@IEAA?AW4CPLErr@@W4GDALRWFlag@@HHHHPEAXHHW4GDALDataType@@HPEAH_J44PEAUGDALRasterIOExtraArg@@@Z
?Bold@OGRStyleLabel@@QEAAHAEAH@Z
?Boolean@CPLJSonStreamingParser@@UEAAX_N@Z
?Boundary@OGRGeometry@@UEBAPEAV1@XZ
?Buffer@OGRGeometry@@UEBAPEAV1@NH@Z
?BuildLayerFromSelectInfo@GDALDataset@@AEAAPEAVOGRLayer@@PEAVswq_select@@PEAVOGRGeometry@@PEBDPEAVswq_select_parse_options@@@Z
?BuildMetadataDomainList@GDALMajorObject@@IEAAPEAPEADPEAPEADHZZ
?BuildOverviews@GDALDataset@@QEAA?AW4CPLErr@@PEBDHPEBHH1P6AHN0PEAX@Z2PEBQEBD@Z
?BuildOverviews@GDALDefaultOverviews@@QEAA?AW4CPLErr@@PEBD0HPEBHH1P6AHN0PEAX@Z2PEBQEBD@Z
?BuildOverviews@GDALProxyRasterBand@@UEAA?AW4CPLErr@@PEBDHPEBHP6AHN0PEAX@Z2PEBQEBD@Z
?BuildOverviews@GDALRasterBand@@UEAA?AW4CPLErr@@PEBDHPEBHP6AHN0PEAX@Z2PEBQEBD@Z
?BuildOverviewsSubDataset@GDALDefaultOverviews@@QEAA?AW4CPLErr@@PEBD0HPEBHH1P6AHN0PEAX@Z2PEBQEBD@Z
?BuildPamFilename@GDALPamDataset@@MEAAPEBDXZ
?BuildParseInfo@GDALDataset@@QEAAPEAUGDALSQLParseInfo@@PEAVswq_select@@PEAVswq_select_parse_options@@@Z
?BuildVirtualOverviews@VRTDataset@@QEAAXXZ
?COPY_COST@GDALAttribute@@2_KB
?COPY_COST@GDALGroup@@2_KB
?COPY_COST@GDALMDArray@@2_KB
?CPLFloatToHalf@@YAGIAEA_N@Z
?CPLIEEEToVaxDouble@@YAXPEAX@Z
?CPLIEEEToVaxFloat@@YAXPEAX@Z
?CPLInstallErrorHandlerAccumulator@@YAXAEAV?$vector@VCPLErrorHandlerAccumulatorStruct@@V?$allocator@VCPLErrorHandlerAccumulatorStruct@@@std@@@std@@@Z
?CPLOPrintf@@YA?AVCPLString@@PEBDZZ
?CPLOvPrintf@@YA?AVCPLString@@PEBDPEAD@Z
?CPLParseRFC822DateTime@@YAHPEBDPEAH1111111@Z
?CPLQuotedSQLIdentifier@@YA?AVCPLString@@PEBD@Z
?CPLURLAddKVP@@YA?AVCPLString@@PEBD00@Z
?CPLURLGetValue@@YA?AVCPLString@@PEBD0@Z
?CPLUninstallErrorHandlerAccumulator@@YAXXZ
?CPLUnixTimeToYMDHMS@@YAPEAUtm@@_JPEAU1@@Z
?CPLVaxToIEEEDouble@@YAXPEAX@Z
?CPLVaxToIEEEFloat@@YAXPEAX@Z
?CPLYMDHMSToUnixTime@@YA_JPEBUtm@@@Z
?CPL_json_object_object_get@@YAPEAUjson_object@@PEAU1@PEBD@Z
?Cache@GDALMDArray@@QEBA_NPEBQEBD@Z
?CanConnect@GNMRule@@UEAA_NAEBVCPLString@@00@Z
?CanConvertTo@GDALExtendedDataType@@QEBA_NAEBV1@@Z
?CanUseDirectIO@RawRasterBand@@IEAAHHHHHW4GDALDataType@@PEAUGDALRasterIOExtraArg@@@Z
?CanUseIndex@OGRFeatureQuery@@AEAAHPEAVswq_expr_node@@PEAVOGRLayer@@@Z
?CanUseIndex@OGRFeatureQuery@@QEAAHPEAVOGRLayer@@@Z
?CanUseSourcesMinMaxImplementations@VRTSourcedRasterBand@@AEAA_NXZ
?Cap@OGRStylePen@@QEAAPEBDAEAH@Z
?CastToCompoundCurve@OGRCurve@@SAPEAVOGRCompoundCurve@@PEAV1@@Z
?CastToCurvePolygon@OGRPolygon@@KAPEAVOGRCurvePolygon@@PEAV1@@Z
?CastToCurvePolygon@OGRSurface@@SAPEAVOGRCurvePolygon@@PEAV1@@Z
?CastToError@OGRGeometry@@SAPEAV1@PEAV1@@Z
?CastToGeometryCollection@OGRGeometryCollection@@SAPEAV1@PEAV1@@Z
?CastToIdentity@OGRGeometry@@SAPEAV1@PEAV1@@Z
?CastToLineString@OGRCompoundCurve@@KAPEAVOGRLineString@@PEAV1@@Z
?CastToLineString@OGRCurve@@SAPEAVOGRLineString@@PEAV1@@Z
?CastToLineString@OGRLinearRing@@KAPEAVOGRLineString@@PEAV1@@Z
?CastToLinearRing@OGRCompoundCurve@@KAPEAVOGRLinearRing@@PEAV1@@Z
?CastToLinearRing@OGRCurve@@SAPEAVOGRLinearRing@@PEAV1@@Z
?CastToLinearRing@OGRLineString@@KAPEAVOGRLinearRing@@PEAV1@@Z
?CastToMultiCurve@OGRMultiLineString@@SAPEAVOGRMultiCurve@@PEAV1@@Z
?CastToMultiLineString@OGRMultiCurve@@SAPEAVOGRMultiLineString@@PEAV1@@Z
?CastToMultiPolygon@OGRMultiSurface@@SAPEAVOGRMultiPolygon@@PEAV1@@Z
?CastToMultiPolygon@OGRPolyhedralSurface@@SAPEAVOGRMultiPolygon@@PEAV1@@Z
?CastToMultiPolygonImpl@OGRPolyhedralSurface@@KAPEAVOGRMultiPolygon@@PEAV1@@Z
?CastToMultiPolygonImpl@OGRTriangulatedSurface@@KAPEAVOGRMultiPolygon@@PEAVOGRPolyhedralSurface@@@Z
?CastToMultiSurface@OGRMultiPolygon@@SAPEAVOGRMultiSurface@@PEAV1@@Z
?CastToPolygon@OGRCurvePolygon@@KAPEAVOGRPolygon@@PEAV1@@Z
?CastToPolygon@OGRSurface@@SAPEAVOGRPolygon@@PEAV1@@Z
?CastToPolygon@OGRTriangle@@SAPEAVOGRGeometry@@PEAV2@@Z
?CastToPolyhedralSurface@OGRTriangulatedSurface@@SAPEAVOGRPolyhedralSurface@@PEAV1@@Z
?CasterToCurvePolygon@OGRPolygon@@CAPEAVOGRCurvePolygon@@PEAVOGRSurface@@@Z
?CasterToLineString@OGRCompoundCurve@@CAPEAVOGRLineString@@PEAVOGRCurve@@@Z
?CasterToLineString@OGRLinearRing@@CAPEAVOGRLineString@@PEAVOGRCurve@@@Z
?CasterToLinearRing@OGRCompoundCurve@@CAPEAVOGRLinearRing@@PEAVOGRCurve@@@Z
?CasterToLinearRing@OGRLineString@@CAPEAVOGRLinearRing@@PEAVOGRCurve@@@Z
?CasterToPolygon@OGRCurvePolygon@@CAPEAVOGRPolygon@@PEAVOGRSurface@@@Z
?CasterToPolygon@OGRTriangle@@CAPEAVOGRPolygon@@PEAVOGRSurface@@@Z
?Centroid@OGRGeometry@@UEBAHPEAVOGRPoint@@@Z
?ChangeAllBlockState@GNMGenericNetwork@@UEAA?AW4CPLErr@@_N@Z
?ChangeAllBlockState@GNMGraph@@UEAAX_N@Z
?ChangeBlockState@GNMGenericNetwork@@UEAA?AW4CPLErr@@_J_N@Z
?ChangeBlockState@GNMGraph@@UEAAX_J_N@Z
?ChangeEdge@GNMGraph@@UEAAX_JNN@Z
?ChangesAreWrittenToFile@GDALDefaultRasterAttributeTable@@UEAAHXZ
?Check@swq_expr_node@@QEAA?AW4swq_field_type@@PEAVswq_field_list@@HHPEAVswq_custom_func_registrar@@H@Z
?CheckAndEmitTrueFalseOrNull@CPLJSonStreamingParser@@AEAA_ND@Z
?CheckCompatibleForDatasetIO@VRTDataset@@AEAAHXZ
?CheckLayerDriver@GNMGenericNetwork@@MEAA?AW4CPLErr@@PEBDPEAPEAD@Z
?CheckReadWriteParams@GDALAbstractMDArray@@IEBA_NPEB_K0AEAPEB_J1AEBVGDALExtendedDataType@@PEBX3_KAEAV?$vector@_JV?$allocator@_J@std@@@std@@5@Z
?CheckStackEmpty@CPLJSonStreamingParser@@AEAA_NXZ
?CheckVertexBlocked@GNMGraph@@UEBA_N_J@Z
?ChunkAndWarpImage@GDALWarpOperation@@QEAA?AW4CPLErr@@HHHH@Z
?ChunkAndWarpMulti@GDALWarpOperation@@QEAA?AW4CPLErr@@HHHH@Z
?CleanOverviews@GDALDefaultOverviews@@QEAA?AW4CPLErr@@XZ
?Cleanup@VRTDerivedRasterBand@@SAXXZ
?CleanupPostFileClosing@GDALDataset@@IEAAXXZ
?CleanupPythonDrivers@GDALDriverManager@@CAXXZ
?Clear@CPLStringList@@QEAAAEAV1@XZ
?Clear@DDFRecordIndex@@QEAAXXZ
?Clear@GDALMultiDomainMetadata@@QEAAXXZ
?Clear@GNMGraph@@UEAAXXZ
?Clear@OGRSpatialReference@@QEAAXXZ
?Clear@OGRStyleTable@@QEAAXXZ
?ClearArray@OGRArrowArrayHelper@@QEAAXXZ
?ClearChildren@OGR_SRSNode@@QEAAXXZ
?ClearGeometryProperties@GMLFeatureClass@@QEAAXXZ
?ClearPendingMultiPoint@S57Reader@@AEAAXXZ
?ClearRawLink@VRTRawRasterBand@@QEAAXXZ
?ClearStatistics@GDALDataset@@UEAAXXZ
?ClearStatistics@GDALGroup@@UEAAXXZ
?ClearStatistics@GDALMDArray@@UEAAXXZ
?ClearStatistics@GDALPamDataset@@UEAAXXZ
?ClearStatistics@GDALPamMDArray@@UEAAXXZ
?ClearStatistics@GDALPamMultiDim@@QEAAXAEBV?$basic_string@DU?$char_traits@D@std@@V?$allocator@D@2@@std@@@Z
?ClearStatistics@GDALPamMultiDim@@QEAAXXZ
?Clip@OGRLayer@@QEAAHPEAV1@0PEAPEADP6AHNPEBDPEAX@Z3@Z
?Clone@GDALColorTable@@QEBAPEAV1@XZ
?Clone@GDALDefaultRasterAttributeTable@@UEBAPEAV1@XZ
?Clone@OGRCodedFieldDomain@@UEBAPEAV1@XZ
?Clone@OGRFeature@@QEBAPEAV1@XZ
?Clone@OGRFeatureDefn@@UEBAPEAV1@XZ
?Clone@OGRGlobFieldDomain@@UEBAPEAV1@XZ
?Clone@OGRRangeFieldDomain@@UEBAPEAV1@XZ
?Clone@OGRSpatialReference@@QEBAPEAV1@XZ
?Clone@OGRStyleTable@@QEAAPEAV1@XZ
?Clone@OGR_SRSNode@@QEBAPEAV1@XZ
?Clone@swq_expr_node@@QEAAPEAV1@XZ
?CloneGeogCS@OGRSpatialReference@@QEBAPEAV1@XZ
?CloneInfo@GDALPamDataset@@UEAA?AW4CPLErr@@PEAVGDALDataset@@H@Z
?CloneInfo@GDALPamRasterBand@@UEAA?AW4CPLErr@@PEAVGDALRasterBand@@H@Z
?Close@S57Reader@@QEAAXXZ
?Close@S57Writer@@QEAA_NXZ
?CloseDependentDatasets@GDALDataset@@MEAAHXZ
?CloseDependentDatasets@GDALDefaultOverviews@@QEAAHXZ
?CloseDependentDatasets@GDALJP2AbstractDataset@@MEAAHXZ
?CloseDependentDatasets@GNMGenericNetwork@@UEAAHXZ
?CloseDependentDatasets@VRTDataset@@MEAAHXZ
?CloseDependentDatasets@VRTRasterBand@@UEAAHXZ
?CloseDependentDatasets@VRTSourcedRasterBand@@UEAAHXZ
?CloseDependentDatasets@VRTWarpedDataset@@MEAAHXZ
?CollectChunkList@GDALWarpOperation@@AEAAXHHHH@Z
?CollectChunkListInternal@GDALWarpOperation@@AEAA?AW4CPLErr@@HHHH@Z
?CollectClassList@S57Reader@@QEAA_NAEAV?$vector@HV?$allocator@H@std@@@std@@@Z
?CollectGMLData@GDALJP2Metadata@@AEAAXPEAVGDALJP2Box@@@Z
?Color@OGRStylePen@@QEAAPEBDAEAH@Z
?Color@OGRStyleSymbol@@QEAAPEBDAEAH@Z
?CommitTransaction@GDALDataset@@UEAAHXZ
?CommitTransaction@OGREditableLayer@@UEAAHXZ
?CommitTransaction@OGRLayer@@UEAAHXZ
?CommitTransaction@OGRLayerDecorator@@UEAAHXZ
?CommitTransaction@OGRMutexedDataSource@@UEAAHXZ
?CommitTransaction@OGRMutexedLayer@@UEAAHXZ
?Compile@OGRFeatureQuery@@AEAAHPEAVOGRLayer@@PEAVOGRFeatureDefn@@PEBDHPEAVswq_custom_func_registrar@@@Z
?Compile@OGRFeatureQuery@@QEAAHPEAVOGRFeatureDefn@@PEBDHPEAVswq_custom_func_registrar@@@Z
?Compile@OGRFeatureQuery@@QEAAHPEAVOGRLayer@@PEBDHPEAVswq_custom_func_registrar@@@Z
?ComputeFileOffset@RawRasterBand@@AEBA_KH@Z
?ComputeMapForSetFrom@OGRFeatureDefn@@QEBA?AV?$vector@HV?$allocator@H@std@@@std@@PEBV1@_N@Z
?ComputeRasterMinMax@GDALProxyRasterBand@@UEAA?AW4CPLErr@@HPEAN@Z
?ComputeRasterMinMax@GDALRasterBand@@UEAA?AW4CPLErr@@HPEAN@Z
?ComputeRasterMinMax@VRTDerivedRasterBand@@UEAA?AW4CPLErr@@HPEAN@Z
?ComputeRasterMinMax@VRTSourcedRasterBand@@UEAA?AW4CPLErr@@HPEAN@Z
?ComputeSourceWindow@GDALWarpOperation@@AEAA?AW4CPLErr@@HHHHPEAH000PEAN11@Z
?ComputeSourceWindowStartingFromSource@GDALWarpOperation@@AEAAXHHHHPEAN000@Z
?ComputeStatistics@GDALAllValidMaskBand@@UEAA?AW4CPLErr@@HPEAN000P6AHNPEBDPEAX@Z2@Z
?ComputeStatistics@GDALMDArray@@UEAA_N_NPEAN111PEA_KP6AHNPEBDPEAX@Z4@Z
?ComputeStatistics@GDALProxyRasterBand@@UEAA?AW4CPLErr@@HPEAN000P6AHNPEBDPEAX@Z2@Z
?ComputeStatistics@GDALRasterBand@@UEAA?AW4CPLErr@@HPEAN000P6AHNPEBDPEAX@Z2@Z
?ComputeStatistics@VRTDerivedRasterBand@@UEAA?AW4CPLErr@@HPEAN000P6AHNPEBDPEAX@Z2@Z
?ComputeStatistics@VRTSourcedRasterBand@@UEAA?AW4CPLErr@@HPEAN000P6AHNPEBDPEAX@Z2@Z
?ComputeWithUnit@OGRStyleTool@@QEAAHHW4ogr_style_tool_units_id@@@Z
?ComputeWithUnit@OGRStyleTool@@QEAANNW4ogr_style_tool_units_id@@@Z
?ConcaveHull@OGRGeometry@@UEBAPEAV1@N_N@Z
?ConfigureActiveLayer@OGRUnionLayer@@IEAAXXZ
?ConfigureSource@VRTSourcedRasterBand@@QEAAXPEAVVRTSimpleSource@@PEAVGDALRasterBand@@HNNNNNNNN@Z
?ConnectFeatures@GNMGenericNetwork@@UEAA?AW4CPLErr@@_J00NNH@Z
?ConnectPointsByLine@GNMGenericNetwork@@MEAAX_JPEBVOGRLineString@@AEBV?$vector@PEAVOGRLayer@@V?$allocator@PEAVOGRLayer@@@std@@@std@@NNNH@Z
?ConnectPointsByLines@GNMGenericNetwork@@UEAA?AW4CPLErr@@PEAPEADNNNH@Z
?ConnectPointsByMultiline@GNMGenericNetwork@@MEAAX_JPEBVOGRMultiLineString@@AEBV?$vector@PEAVOGRLayer@@V?$allocator@PEAVOGRLayer@@@std@@@std@@NNNH@Z
?ConnectedComponents@GNMGraph@@UEAA?AV?$vector@U?$pair@_J_J@std@@V?$allocator@U?$pair@_J_J@std@@@2@@std@@AEBV?$vector@_JV?$allocator@_J@std@@@3@@Z
?Contains@OGRCurvePolygon@@UEBAHPEBVOGRGeometry@@@Z
?Contains@OGREnvelope3D@@QEBAHAEBV1@@Z
?Contains@OGREnvelope@@QEBAHAEBV1@@Z
?Contains@OGRGeometry@@UEBAHPEBV1@@Z
?ContainsPoint@OGRCircularString@@MEBAHPEBVOGRPoint@@@Z
?ContainsPoint@OGRCurve@@MEBAHPEBVOGRPoint@@@Z
?ContainsPoint@OGRCurvePolygon@@AEBAHPEBVOGRPoint@@@Z
?ConvertGeomsIfNecessary@OGRLayer@@AEAAXPEAVOGRFeature@@@Z
?ConvexHull@OGRGeometry@@UEBAPEAV1@XZ
?CoordinateDimension@OGRGeometry@@QEBAHXZ
?CopyCommonInfoFrom@VRTRasterBand@@QEAA?AW4CPLErr@@PEAVGDALRasterBand@@@Z
?CopyFiles@GDALDriver@@QEAA?AW4CPLErr@@PEBD0@Z
?CopyFrom@GDALGroup@@UEAA_NAEBV?$shared_ptr@VGDALGroup@@@std@@PEAVGDALDataset@@0_NAEA_K_KP6AHNPEBDPEAX@Z6PEBQEBD@Z
?CopyFrom@GDALMDArray@@UEAA_NPEAVGDALDataset@@PEBV1@_NAEA_K_KP6AHNPEBDPEAX@Z6@Z
?CopyFromAllExceptValues@GDALMDArray@@QEAA_NPEBV1@_NAEA_K_KP6AHNPEBDPEAX@Z5@Z
?CopyGeogCSFrom@OGRSpatialReference@@QEAAHPEBV1@@Z
?CopyLayer@GDALDataset@@UEAAPEAVOGRLayer@@PEAV2@PEBDPEAPEAD@Z
?CopyLayer@GNMGenericNetwork@@UEAAPEAVOGRLayer@@PEAV2@PEBDPEAPEAD@Z
?CopyLayer@OGRMutexedDataSource@@UEAAPEAVOGRLayer@@PEAV2@PEBDPEAPEAD@Z
?CopySelfTo@OGRFeature@@IEBA_NPEAV1@@Z
?CopyValue@GDALExtendedDataType@@SA_NPEBXAEBV1@PEAX1@Z
?CopyValues@GDALExtendedDataType@@SA_NPEBXAEBV1@_JPEAX12_K@Z
?Count@CPLStringList@@QEBAHXZ
?Create@GDALDriver@@QEAAPEAVGDALDataset@@PEBDHHHW4GDALDataType@@PEBQEBD@Z
?Create@GDALExtendedDataType@@SA?AV1@AEBV?$basic_string@DU?$char_traits@D@std@@V?$allocator@D@2@@std@@_K$$QEAV?$vector@V?$unique_ptr@VGDALEDTComponent@@U?$default_delete@VGDALEDTComponent@@@std@@@std@@V?$allocator@V?$unique_ptr@VGDALEDTComponent@@U?$default_delete@VGDALEDTComponent@@@std@@@std@@@2@@3@@Z
?Create@GDALExtendedDataType@@SA?AV1@W4GDALDataType@@@Z
?Create@GDALMDArrayRegularlySpaced@@SA?AV?$shared_ptr@VGDALMDArrayRegularlySpaced@@@std@@AEBV?$basic_string@DU?$char_traits@D@std@@V?$allocator@D@2@@3@0AEBV?$shared_ptr@VGDALDimension@@@3@NNN@Z
?Create@GDALProxyPoolDataset@@SAPEAV1@PEBDPEBQEBDW4GDALAccess@@H0@Z
?Create@MEMDataset@@SAPEAV1@PEBDHHHW4GDALDataType@@PEAPEAD@Z
?Create@VRTDataset@@SAPEAVGDALDataset@@PEBDHHHW4GDALDataType@@PEAPEAD@Z
?CreateAsocBox@GDALJP2Box@@SAPEAV1@HPEBQEBV1@@Z
?CreateAttribute@GDALIHasAttribute@@UEAA?AV?$shared_ptr@VGDALAttribute@@@std@@AEBV?$basic_string@DU?$char_traits@D@std@@V?$allocator@D@2@@3@AEBV?$vector@_KV?$allocator@_K@std@@@3@AEBVGDALExtendedDataType@@PEBQEBD@Z
?CreateAttribute@MEMGroup@@UEAA?AV?$shared_ptr@VGDALAttribute@@@std@@AEBV?$basic_string@DU?$char_traits@D@std@@V?$allocator@D@2@@3@AEBV?$vector@_KV?$allocator@_K@std@@@3@AEBVGDALExtendedDataType@@PEBQEBD@Z
?CreateBase@MEMDataset@@CAPEAVGDALDataset@@PEBDHHHW4GDALDataType@@PEAPEAD@Z
?CreateColorRamp@GDALColorTable@@QEAAHHPEBUGDALColorEntry@@H0@Z
?CreateColumn@GDALDefaultRasterAttributeTable@@UEAA?AW4CPLErr@@PEBDW4GDALRATFieldType@@W4GDALRATFieldUsage@@@Z
?CreateColumn@GDALRasterAttributeTable@@UEAA?AW4CPLErr@@PEBDW4GDALRATFieldType@@W4GDALRATFieldUsage@@@Z
?CreateCopy@GDALDriver@@QEAAPEAVGDALDataset@@PEBDPEAV2@HPEBQEBDP6AHN0PEAX@Z3@Z
?CreateDataSource@OGRSFDriver@@UEAAPEAVOGRDataSource@@PEBDPEAPEAD@Z
?CreateDestinationBuffer@GDALWarpOperation@@QEAAPEAXHHPEAH@Z
?CreateDimension@GDALGroup@@UEAA?AV?$shared_ptr@VGDALDimension@@@std@@AEBV?$basic_string@DU?$char_traits@D@std@@V?$allocator@D@2@@3@00_KPEBQEBD@Z
?CreateDimension@MEMGroup@@UEAA?AV?$shared_ptr@VGDALDimension@@@std@@AEBV?$basic_string@DU?$char_traits@D@std@@V?$allocator@D@2@@3@00_KPEBQEBD@Z
?CreateFeature@OGRFeature@@SAPEAV1@PEAVOGRFeatureDefn@@@Z
?CreateFeature@OGRLayer@@QEAAHPEAVOGRFeature@@@Z
?CreateFeatureDefn@OGRFeatureDefn@@SAPEAV1@PEBD@Z
?CreateFeaturesLayer@GNMGenericNetwork@@MEAA?AW4CPLErr@@QEAVGDALDataset@@@Z
?CreateField@OGREditableLayer@@UEAAHPEAVOGRFieldDefn@@H@Z
?CreateField@OGRLayer@@UEAAHPEAVOGRFieldDefn@@H@Z
?CreateField@OGRLayerDecorator@@UEAAHPEAVOGRFieldDefn@@H@Z
?CreateField@OGRMemLayer@@UEAAHPEAVOGRFieldDefn@@H@Z
?CreateField@OGRMutexedLayer@@UEAAHPEAVOGRFieldDefn@@H@Z
?CreateGDALMultiDomainMetadataXML@GDALJP2Metadata@@CAPEAUCPLXMLNode@@PEAVGDALDataset@@H@Z
?CreateGDALMultiDomainMetadataXMLBox@GDALJP2Metadata@@SAPEAVGDALJP2Box@@PEAVGDALDataset@@H@Z
?CreateGMLJP2@GDALJP2Metadata@@QEAAPEAVGDALJP2Box@@HH@Z
?CreateGMLJP2V2@GDALJP2Metadata@@QEAAPEAVGDALJP2Box@@HHPEBDPEAVGDALDataset@@@Z
?CreateGeomField@OGREditableLayer@@UEAAHPEAVOGRGeomFieldDefn@@H@Z
?CreateGeomField@OGRLayer@@UEAAHPEAVOGRGeomFieldDefn@@H@Z
?CreateGeomField@OGRLayerDecorator@@UEAAHPEAVOGRGeomFieldDefn@@H@Z
?CreateGeomField@OGRMemLayer@@UEAAHPEAVOGRGeomFieldDefn@@H@Z
?CreateGraphLayer@GNMGenericNetwork@@MEAA?AW4CPLErr@@QEAVGDALDataset@@@Z
?CreateGroup@GDALGroup@@UEAA?AV?$shared_ptr@VGDALGroup@@@std@@AEBV?$basic_string@DU?$char_traits@D@std@@V?$allocator@D@2@@3@PEBQEBD@Z
?CreateGroup@MEMGroup@@UEAA?AV?$shared_ptr@VGDALGroup@@@std@@AEBV?$basic_string@DU?$char_traits@D@std@@V?$allocator@D@2@@3@PEBQEBD@Z
?CreateIPRBox@GDALJP2Metadata@@SAPEAVGDALJP2Box@@PEAVGDALDataset@@@Z
?CreateImplicitOverviews@VRTWarpedDataset@@AEAAXXZ
?CreateJP2GeoTIFF@GDALJP2Metadata@@QEAAPEAVGDALJP2Box@@XZ
?CreateJUMBFBox@GDALJP2Box@@SAPEAV1@PEBV1@HPEBQEBV1@@Z
?CreateJUMBFDescriptionBox@GDALJP2Box@@SAPEAV1@PEBEPEBD@Z
?CreateJobQueue@CPLWorkerThreadPool@@QEAA?AV?$unique_ptr@VCPLJobQueue@@U?$default_delete@VCPLJobQueue@@@std@@@std@@XZ
?CreateKernelMask@GDALWarpOperation@@CA?AW4CPLErr@@PEAVGDALWarpKernel@@HPEBD@Z
?CreateLabelledXMLAssoc@GDALJP2Box@@SAPEAV1@PEBD0@Z
?CreateLayer@GDALDataset@@UEAAPEAVOGRLayer@@PEBDPEAVOGRSpatialReference@@W4OGRwkbGeometryType@@PEAPEAD@Z
?CreateLblBox@GDALJP2Box@@SAPEAV1@PEBD@Z
?CreateMDArray@GDALGroup@@UEAA?AV?$shared_ptr@VGDALMDArray@@@std@@AEBV?$basic_string@DU?$char_traits@D@std@@V?$allocator@D@2@@3@AEBV?$vector@V?$shared_ptr@VGDALDimension@@@std@@V?$allocator@V?$shared_ptr@VGDALDimension@@@std@@@2@@3@AEBVGDALExtendedDataType@@PEBQEBD@Z
?CreateMDArray@MEMGroup@@QEAA?AV?$shared_ptr@VGDALMDArray@@@std@@AEBV?$basic_string@DU?$char_traits@D@std@@V?$allocator@D@2@@3@AEBV?$vector@V?$shared_ptr@VGDALDimension@@@std@@V?$allocator@V?$shared_ptr@VGDALDimension@@@std@@@2@@3@AEBVGDALExtendedDataType@@PEAXPEBQEBD@Z
?CreateMDArray@MEMGroup@@UEAA?AV?$shared_ptr@VGDALMDArray@@@std@@AEBV?$basic_string@DU?$char_traits@D@std@@V?$allocator@D@2@@3@AEBV?$vector@V?$shared_ptr@VGDALDimension@@@std@@V?$allocator@V?$shared_ptr@VGDALDimension@@@std@@@2@@3@AEBVGDALExtendedDataType@@PEBQEBD@Z
?CreateMaskBand@GDALDataset@@UEAA?AW4CPLErr@@H@Z
?CreateMaskBand@GDALDefaultOverviews@@QEAA?AW4CPLErr@@HH@Z
?CreateMaskBand@GDALProxyDataset@@UEAA?AW4CPLErr@@H@Z
?CreateMaskBand@GDALProxyRasterBand@@UEAA?AW4CPLErr@@H@Z
?CreateMaskBand@GDALRasterBand@@UEAA?AW4CPLErr@@H@Z
?CreateMaskBand@MEMDataset@@UEAA?AW4CPLErr@@H@Z
?CreateMaskBand@MEMRasterBand@@UEAA?AW4CPLErr@@H@Z
?CreateMaskBand@VRTDataset@@UEAA?AW4CPLErr@@H@Z
?CreateMaskBand@VRTRasterBand@@UEAA?AW4CPLErr@@H@Z
?CreateMetadataLayer@GNMGenericNetwork@@MEAA?AW4CPLErr@@QEAVGDALDataset@@H_K@Z
?CreateMultiDimensional@GDALDriver@@QEAAPEAVGDALDataset@@PEBDPEBQEBD1@Z
?CreateMultiDimensional@MEMDataset@@SAPEAVGDALDataset@@PEBDPEBQEBD1@Z
?CreateMultiDimensional@VRTDataset@@SAPEAVGDALDataset@@PEBDPEBQEBD1@Z
?CreateReaderForRPC@GDALMDReaderPleiades@@SAPEAV1@PEBD@Z
?CreateRule@GNMGenericNetwork@@UEAA?AW4CPLErr@@PEBD@Z
?CreateS57File@S57Writer@@QEAA_NPEBD@Z
?CreateString@GDALExtendedDataType@@SA?AV1@_KW4GDALExtendedDataTypeSubType@@@Z
?CreateStyleToolFromStyleString@OGRStyleMgr@@SAPEAVOGRStyleTool@@PEBD@Z
?CreateSuperBox@GDALJP2Box@@SAPEAV1@PEBDHPEBQEBV1@@Z
?CreateUUIDBox@GDALJP2Box@@SAPEAV1@PEBEH0@Z
?CreateVectorOnly@OGRSFDriverRegistrar@@CAPEAVGDALDataset@@PEAVGDALDriver@@PEBDPEAPEAD@Z
?CreateXMLBoxes@GDALJP2Metadata@@SAPEAPEAVGDALJP2Box@@PEAVGDALDataset@@PEAH@Z
?CreateXMPBox@GDALJP2Metadata@@SAPEAVGDALJP2Box@@PEAVGDALDataset@@@Z
?Crosses@OGRGeometry@@UEBAHPEBV1@@Z
?CurvePolyToPoly@OGRCurvePolygon@@UEBAPEAVOGRPolygon@@NPEBQEBD@Z
?CurvePolyToPoly@OGRPolygon@@UEBAPEAV1@NPEBQEBD@Z
?CurveToLine@OGRCircularString@@UEBAPEAVOGRLineString@@NPEBQEBD@Z
?CurveToLine@OGRCompoundCurve@@UEBAPEAVOGRLineString@@NPEBQEBD@Z
?CurveToLine@OGRLineString@@UEBAPEAV1@NPEBQEBD@Z
?CurveToLineInternal@OGRCompoundCurve@@AEBAPEAVOGRLineString@@NPEBQEBDH@Z
?DatasetRasterIO@VRTSimpleSource@@QEAA?AW4CPLErr@@W4GDALDataType@@HHHHPEAXHH0HPEAH_J33PEAUGDALRasterIOExtraArg@@@Z
?DecIndent@CPLJSonStreamingWriter@@AEAAXXZ
?DeclareJobFinished@CPLJobQueue@@AEAAXXZ
?DeclareJobFinished@CPLWorkerThreadPool@@AEAAXXZ
?DecodeUnicode@CPLJSonStreamingParser@@AEAAXXZ
?DefaultCopyFiles@GDALDriver@@SA?AW4CPLErr@@PEBD0@Z
?DefaultCopyMasks@GDALDriver@@SA?AW4CPLErr@@PEAVGDALDataset@@0H@Z
?DefaultCopyMasks@GDALDriver@@SA?AW4CPLErr@@PEAVGDALDataset@@0HPEBQEBDP6AHNPEBDPEAX@Z3@Z
?DefaultCreateCopy@GDALDriver@@QEAAPEAVGDALDataset@@PEBDPEAV2@HPEBQEBDP6AHN0PEAX@Z3@Z
?DefaultCreateCopyMultiDimensional@GDALDriver@@SA?AW4CPLErr@@PEAVGDALDataset@@0_NPEBQEBDP6AHNPEBDPEAX@Z4@Z
?DefaultRename@GDALDriver@@SA?AW4CPLErr@@PEBD0@Z
?Deinit@CPLJSONObject@@QEAAXXZ
?DelaunayTriangulation@OGRGeometry@@UEBAPEAV1@NH@Z
?Delete@CPLJSONObject@@QEAAXAEBV?$basic_string@DU?$char_traits@D@std@@V?$allocator@D@2@@std@@@Z
?Delete@GDALDriver@@QEAA?AW4CPLErr@@PEBD@Z
?Delete@GNMGenericNetwork@@UEAA?AW4CPLErr@@XZ
?Delete@VRTDataset@@SA?AW4CPLErr@@PEBD@Z
?DeleteAllRules@GNMGenericNetwork@@UEAA?AW4CPLErr@@XZ
?DeleteDataSource@OGRSFDriver@@UEAAHPEBD@Z
?DeleteDataSource@OGRSFDriverRegistrar@@CA?AW4CPLErr@@PEAVGDALDriver@@PEBD@Z
?DeleteEdge@GNMGraph@@UEAAX_J@Z
?DeleteFeature@OGREditableLayer@@UEAAH_J@Z
?DeleteFeature@OGRLayer@@UEAAH_J@Z
?DeleteFeature@OGRLayerDecorator@@UEAAH_J@Z
?DeleteFeature@OGRMemLayer@@UEAAH_J@Z
?DeleteFeature@OGRMutexedLayer@@UEAAH_J@Z
?DeleteField@OGREditableLayer@@UEAAHH@Z
?DeleteField@OGRLayer@@UEAAHH@Z
?DeleteField@OGRLayerDecorator@@UEAAHH@Z
?DeleteField@OGRMemLayer@@UEAAHH@Z
?DeleteField@OGRMutexedLayer@@UEAAHH@Z
?DeleteFieldDefn@OGRFeatureDefn@@UEAAHH@Z
?DeleteFieldDomain@GDALDataset@@UEAA_NAEBV?$basic_string@DU?$char_traits@D@std@@V?$allocator@D@2@@std@@AEAV23@@Z
?DeleteFieldDomain@OGRMutexedDataSource@@UEAA_NAEBV?$basic_string@DU?$char_traits@D@std@@V?$allocator@D@2@@std@@AEAV23@@Z
?DeleteGeoTransform@GDALPamDataset@@QEAAXXZ
?DeleteGeomFieldDefn@OGRFeatureDefn@@UEAAHH@Z
?DeleteLayer@GDALDataset@@UEAAHH@Z
?DeleteLayer@GNMGenericNetwork@@UEAAHH@Z
?DeleteLayer@OGRMutexedDataSource@@UEAAHH@Z
?DeleteNoDataValue@GDALPamRasterBand@@UEAA?AW4CPLErr@@XZ
?DeleteNoDataValue@GDALProxyRasterBand@@UEAA?AW4CPLErr@@XZ
?DeleteNoDataValue@GDALRasterBand@@UEAA?AW4CPLErr@@XZ
?DeleteNoDataValue@VRTRasterBand@@UEAA?AW4CPLErr@@XZ
?DeleteNoSplitName@CPLJSONObject@@QEAAXAEBV?$basic_string@DU?$char_traits@D@std@@V?$allocator@D@2@@std@@@Z
?DeleteRelationship@GDALDataset@@UEAA_NAEBV?$basic_string@DU?$char_traits@D@std@@V?$allocator@D@2@@std@@AEAV23@@Z
?DeleteRule@GNMGenericNetwork@@UEAA?AW4CPLErr@@PEBD@Z
?DeleteVertex@GNMGraph@@UEAAX_J@Z
?DemoteTo2D@OGRSpatialReference@@QEAAHPEBD@Z
?Dereference@GDALDataset@@QEAAHXZ
?Dereference@OGRFeatureDefn@@QEAAHXZ
?Dereference@OGRLayer@@QEAAHXZ
?Dereference@OGRSpatialReference@@QEAAHXZ
?DeregisterDriver@GDALDriverManager@@QEAAXPEAVGDALDriver@@@Z
?DestroyCT@OGRCoordinateTransformation@@SAXPEAV1@@Z
?DestroyChild@OGR_SRSNode@@QEAAXH@Z
?DestroyDataSource@OGRDataSource@@SAXPEAV1@@Z
?DestroyDestinationBuffer@GDALWarpOperation@@SAXPEAX@Z
?DestroyFeature@OGRFeature@@SAXPEAV1@@Z
?DestroyFeatureDefn@OGRFeatureDefn@@SAXPEAV1@@Z
?DestroyParseInfo@GDALDataset@@SAXPEAUGDALSQLParseInfo@@@Z
?DestroyRBMutex@GDALRasterBlock@@SAXXZ
?DestroySpatialReference@OGRSpatialReference@@SAXPEAV1@@Z
?Detach@GDALRasterBlock@@QEAAXXZ
?Detach_unlocked@GDALRasterBlock@@AEAAXXZ
?DetectNextFID@OGREditableLayer@@IEAAXXZ
?Difference@OGRGeometry@@UEBAPEAV1@PEBV1@@Z
?DijkstraShortestPath@GNMGraph@@MEAA?AV?$vector@U?$pair@_J_J@std@@V?$allocator@U?$pair@_J_J@std@@@2@@std@@_J0AEBV?$map@_JUGNMStdEdge@@U?$less@_J@std@@V?$allocator@U?$pair@$$CB_JUGNMStdEdge@@@std@@@3@@3@@Z
?DijkstraShortestPath@GNMGraph@@UEAA?AV?$vector@U?$pair@_J_J@std@@V?$allocator@U?$pair@_J_J@std@@@2@@std@@_J0@Z
?DijkstraShortestPathTree@GNMGraph@@MEAAX_JAEBV?$map@_JUGNMStdEdge@@U?$less@_J@std@@V?$allocator@U?$pair@$$CB_JUGNMStdEdge@@@std@@@3@@std@@AEAV?$map@_J_JU?$less@_J@std@@V?$allocator@U?$pair@$$CB_J_J@std@@@2@@3@@Z
?DisableReadWriteMutex@GDALDataset@@IEAAXXZ
?DisconnectAll@GNMGenericNetwork@@UEAA?AW4CPLErr@@XZ
?DisconnectFeatures@GNMGenericNetwork@@UEAA?AW4CPLErr@@_J00@Z
?DisconnectFeaturesWithId@GNMGenericNetwork@@UEAA?AW4CPLErr@@_J@Z
?Disjoint@OGRGeometry@@UEBAHPEBV1@@Z
?Distance3D@OGRGeometry@@UEBANPEBV1@@Z
?Distance@OGRGeometry@@UEBANPEBV1@@Z
?DoByteSwap@RawRasterBand@@AEBAXPEAX_KH_N@Z
?DropLock@GDALRasterBlock@@QEAAHXZ
?DropLockForRemovalFromStorage@GDALRasterBlock@@QEAAHXZ
?DstToSrc@VRTSimpleSource@@QEBAXNNAEAN0@Z
?Dump@GMLFeature@@QEAAXPEAU_iobuf@@@Z
?Dump@swq_expr_node@@QEAAXPEAU_iobuf@@H@Z
?Dump@swq_select@@QEAAXPEAU_iobuf@@@Z
?DumpReadable@GDALJP2Box@@QEAAHPEAU_iobuf@@H@Z
?DumpReadable@GDALRasterAttributeTable@@UEAAXPEAU_iobuf@@@Z
?DumpReadable@OGRFeature@@QEBAXPEAU_iobuf@@PEAPEAD@Z
?EPSGTreatsAsLatLong@OGRSpatialReference@@QEBAHXZ
?EPSGTreatsAsNorthingEasting@OGRSpatialReference@@QEBAHXZ
?EXIFCreate@@YAPEAEPEAPEADPEAEIIIPEAI@Z
?EXIFExtractMetadata@@YA?AW4CPLErr@@AEAPEAPEADPEAXHHHAEAH22@Z
?EmitCommaIfNeeded@CPLJSonStreamingWriter@@AEAAXXZ
?EmitException@CPLJSonStreamingParser@@IEAA_NPEBD@Z
?EmitUnexpectedChar@CPLJSonStreamingParser@@AEAA_NDPEBD@Z
?EndArray@CPLJSonStreamingParser@@UEAAXXZ
?EndArray@CPLJSonStreamingWriter@@QEAAXXZ
?EndAsyncReader@GDALDataset@@UEAAXPEAVGDALAsyncReader@@@Z
?EndObj@CPLJSonStreamingWriter@@QEAAXXZ
?EndObject@CPLJSonStreamingParser@@UEAAXXZ
?EndPoint@OGRCompoundCurve@@UEBAXPEAVOGRPoint@@@Z
?EndPoint@OGRSimpleCurve@@UEBAXPEAVOGRPoint@@@Z
?EnsureAllocation@CPLStringList@@AEAA_NH@Z
?EnterDisableDirtyBlockFlush@GDALRasterBlock@@SAXXZ
?EnterReadWrite@GDALDataset@@IEAAHW4GDALRWFlag@@@Z
?EnterReadWrite@GDALRasterBand@@IEAAHW4GDALRWFlag@@@Z
?Equal@OGRFeature@@UEBAHPEBV1@@Z
?Equal@OGRGeometry@@QEBAHPEAV1@@Z
?Equals@OGRCompoundCurve@@UEBAHPEBVOGRGeometry@@@Z
?Equals@OGRCurveCollection@@QEBAHPEBV1@@Z
?Equals@OGRCurvePolygon@@UEBAHPEBVOGRGeometry@@@Z
?Equals@OGRGeometryCollection@@UEBAHPEBVOGRGeometry@@@Z
?Equals@OGRPoint@@UEBAHPEBVOGRGeometry@@@Z
?Equals@OGRPolyhedralSurface@@UEBAHPEBVOGRGeometry@@@Z
?Equals@OGRSimpleCurve@@UEBAHPEBVOGRGeometry@@@Z
?Erase@OGRLayer@@QEAAHPEAV1@0PEAPEADP6AHNPEBDPEAX@Z3@Z
?Evaluate@OGRFeatureQuery@@QEAAHPEAVOGRFeature@@@Z
?Evaluate@swq_expr_node@@AEAAPEAV1@P6APEAV1@PEAV1@PEAX@Z1H@Z
?Evaluate@swq_expr_node@@QEAAPEAV1@P6APEAV1@PEAV1@PEAX@Z1@Z
?EvaluateAgainstIndices@OGRFeatureQuery@@AEAAPEA_JPEAVswq_expr_node@@PEAVOGRLayer@@AEA_J@Z
?EvaluateAgainstIndices@OGRFeatureQuery@@QEAAPEA_JPEAVOGRLayer@@PEAH@Z
?Exception@CPLJSonStreamingParser@@UEAAXPEBD@Z
?ExceptionOccurred@CPLJSonStreamingParser@@QEBA_NXZ
?ExecuteSQL@GDALDataset@@QEAAPEAVOGRLayer@@PEBDPEAVOGRGeometry@@0PEAVswq_select_parse_options@@@Z
?ExecuteSQL@GDALDataset@@UEAAPEAVOGRLayer@@PEBDPEAVOGRGeometry@@0@Z
?ExecuteSQL@OGRMutexedDataSource@@UEAAPEAVOGRLayer@@PEBDPEAVOGRGeometry@@0@Z
?ExtendEnvelopeWithCircular@OGRCircularString@@AEBAXPEAVOGREnvelope@@@Z
?FetchBool@CPLStringList@@QEBA_NPEBD_N@Z
?FetchBoolean@CPLStringList@@QEBAHPEBDH@Z
?FetchLine@S57Reader@@AEAA_NPEAVDDFRecord@@HHPEAVOGRLineString@@@Z
?FetchNameValue@CPLStringList@@QEBAPEBDPEBD@Z
?FetchNameValueDef@CPLStringList@@QEBAPEBDPEBD0@Z
?FetchPoint@S57Reader@@AEAA_NHHPEAN00@Z
?FieldCollector@OGRFeatureQuery@@AEAAPEAPEADPEAXPEAPEAD@Z
?Fill@GDALProxyRasterBand@@UEAA?AW4CPLErr@@NN@Z
?Fill@GDALRasterBand@@UEAA?AW4CPLErr@@NN@Z
?FillDict@OGRArrowArrayHelper@@SA_NPEAUArrowArray@@PEBVOGRCodedFieldDomain@@@Z
?FillMetadata@GDALMDReaderBase@@UEAA_NPEAVGDALMultiDomainMetadata@@@Z
?FillResultLayer@GNMGenericNetwork@@MEAAXPEAVOGRGNMWrappedResultLayer@@AEBV?$vector@U?$pair@_J_J@std@@V?$allocator@U?$pair@_J_J@std@@@2@@std@@H_N2@Z
?FillUnsetWithDefault@OGRFeature@@QEAAXHPEAPEAD@Z
?FilterGeometry@OGRLayer@@IEAAHPEAVOGRGeometry@@@Z
?Find@OGRStyleTable@@QEAAPEBDPEBD@Z
?FindAndApplyUpdates@S57Reader@@QEAA_NPEBD@Z
?FindAttrByAcronym@S57ClassRegistrar@@QEAAHPEBD@Z
?FindBestMatch@OGRSpatialReference@@QEBAPEAV1@HPEBDPEBQEBD@Z
?FindChild@OGR_SRSNode@@QEBAHPEBD@Z
?FindConnection@GNMGenericNetwork@@MEAAPEAVOGRFeature@@_J00@Z
?FindFDefn@S57Reader@@AEAAPEAVOGRFeatureDefn@@PEAVDDFRecord@@@Z
?FindFieldIndex@OGRLayer@@UEAAHPEBDH@Z
?FindFile@S57ClassRegistrar@@CA_NPEBD0_NPEAPEAU_iobuf@@@Z
?FindMatches@OGRSpatialReference@@QEBAPEAPEAXPEAPEADPEAHPEAPEAH@Z
?FindName@CPLStringList@@QEBAHPEBD@Z
?FindNearestPoint@GNMGenericNetwork@@MEAA_JPEBVOGRPoint@@AEBV?$vector@PEAVOGRLayer@@V?$allocator@PEAVOGRLayer@@@std@@@std@@N@Z
?FindProjParm@OGRSpatialReference@@QEBAHPEBDPEBVOGR_SRSNode@@@Z
?FindRecord@DDFRecordIndex@@QEAAPEAVDDFRecord@@H@Z
?FindRecordByObjl@DDFRecordIndex@@QEAAPEAVDDFRecord@@H@Z
?FindSortedInsertionPoint@CPLStringList@@AEAAHPEBD@Z
?FindString@CPLStringList@@QEBAHPEBD@Z
?Flush@VSIVirtualHandle@@UEAAHXZ
?FlushBlock@GDALRasterBand@@QEAA?AW4CPLErr@@HHH@Z
?FlushCache@GDALDataset@@UEAAX_N@Z
?FlushCache@GDALPamDataset@@UEAAX_N@Z
?FlushCache@GDALProxyDataset@@UEAAX_N@Z
?FlushCache@GDALProxyPoolDataset@@UEAAX_N@Z
?FlushCache@GDALProxyPoolRasterBand@@UEAA?AW4CPLErr@@_N@Z
?FlushCache@GDALProxyRasterBand@@UEAA?AW4CPLErr@@_N@Z
?FlushCache@GDALRasterBand@@UEAA?AW4CPLErr@@_N@Z
?FlushCache@GNMGenericNetwork@@UEAAX_N@Z
?FlushCache@OGRMutexedDataSource@@UEAAX_N@Z
?FlushCache@RawRasterBand@@UEAA?AW4CPLErr@@_N@Z
?FlushCache@VRTDataset@@UEAAX_N@Z
?FlushCache@VRTSimpleSource@@UEAA?AW4CPLErr@@_N@Z
?FlushCache@VRTSource@@UEAA?AW4CPLErr@@_N@Z
?FlushCache@VRTSourcedRasterBand@@UEAA?AW4CPLErr@@_N@Z
?FlushCache@VRTWarpedDataset@@UEAAX_N@Z
?FlushCacheBlock@GDALRasterBlock@@SAHH@Z
?FlushCurrentLine@RawRasterBand@@AEAA_N_N@Z
?FlushDirtyBlocks@GDALRasterBlock@@SAXXZ
?FontName@OGRStyleLabel@@QEAAPEBDAEAH@Z
?FontName@OGRStyleSymbol@@QEAAPEBDAEAH@Z
?ForeColor@OGRStyleBrush@@QEAAPEBDAEAH@Z
?ForeColor@OGRStyleLabel@@QEAAPEBDAEAH@Z
?Format@CPLJSONObject@@QEBA?AV?$basic_string@DU?$char_traits@D@std@@V?$allocator@D@2@@std@@W4PrettyFormat@1@@Z
?FormatC@CPLString@@QEAAAEAV1@NPEBD@Z
?FormatString@CPLJSonStreamingWriter@@CA?AV?$basic_string@DU?$char_traits@D@std@@V?$allocator@D@2@@std@@AEBV23@@Z
?FreeDynamicMemory@GDALExtendedDataType@@QEBAXPEAX@Z
?FreeMe@GDALRawResult@@AEAAXXZ
?FromHandle@GDALColorTable@@SAPEAV1@PEAX@Z
?FromHandle@GDALDataset@@SAPEAV1@PEAX@Z
?FromHandle@GDALDriver@@SAPEAV1@PEAX@Z
?FromHandle@GDALMajorObject@@SAPEAV1@PEAX@Z
?FromHandle@GDALRasterAttributeTable@@SAPEAV1@PEAX@Z
?FromHandle@GDALRasterBand@@SAPEAV1@PEAX@Z
?FromHandle@GDALRelationship@@SAPEAV1@PEAX@Z
?FromHandle@OGRCoordinateTransformation@@SAPEAV1@PEAX@Z
?FromHandle@OGRFeature@@SAPEAV1@PEAX@Z
?FromHandle@OGRFeatureDefn@@SAPEAV1@PEAX@Z
?FromHandle@OGRFieldDefn@@SAPEAV1@PEAX@Z
?FromHandle@OGRFieldDomain@@SAPEAV1@PEAUOGRFieldDomainHS@@@Z
?FromHandle@OGRGeomFieldDefn@@SAPEAV1@PEAUOGRGeomFieldDefnHS@@@Z
?FromHandle@OGRGeometry@@SAPEAV1@PEAX@Z
?FromHandle@OGRLayer@@SAPEAV1@PEAX@Z
?FromHandle@OGRSpatialReference@@SAPEAV1@PEAX@Z
?GDALBufferHasOnlyNoData@@YA_NPEBXN_K111HW4GDALBufferSampleFormat@@@Z
?GDALCloneTransformer@@YAPEAXPEAX@Z
?GDALCopyNoDataValue@@YAXPEAVGDALRasterBand@@0@Z
?GDALGetGlobalThreadPool@@YAPEAVCPLWorkerThreadPool@@H@Z
?GDALGetJPEG2000Reversibility@@YAPEBDPEBDPEAU_iobuf@@@Z
?GDALGetNoDataValueCastToDouble@@YAN_J@Z
?GDALGetNoDataValueCastToDouble@@YAN_K@Z
?GDALIsDriverDeprecatedForGDAL35StillEnabled@@YA_NPEBD0@Z
?GDALRegenerateOverviewsMultiBand@@YA?AW4CPLErr@@HPEBQEAVGDALRasterBand@@HPEBQEBQEAV2@PEBDP6AHN2PEAX@Z3PEBQEBD@Z
?GDALRegisterTransformDeserializer@@YAPEAXPEBDP6AHPEAXHHPEAN22PEAH@ZP6APEAXPEAUCPLXMLNode@@@Z@Z
?GDALUnregisterTransformDeserializer@@YAXPEAX@Z
?GMLParseXSD@@YA_NPEBDAEAV?$vector@PEAVGMLFeatureClass@@V?$allocator@PEAVGMLFeatureClass@@@std@@@std@@AEA_N@Z
?GMLSRSLookup@GDALJP2Metadata@@AEAAHPEBD@Z
?GML_GetOGRFieldType@@YA?AW4OGRFieldType@@W4GMLPropertyType@@AEAW4OGRFieldSubType@@@Z
?GTiffGetCompressValues@@YA?AVCPLString@@AEA_N000000_N@Z
?GenerateFSPTAttributes@S57Reader@@AEAAXPEAVDDFRecord@@PEAVOGRFeature@@@Z
?GenerateLNAMAndRefs@S57Reader@@AEAAXPEAVDDFRecord@@PEAVOGRFeature@@@Z
?GeoJSONPropertyToFieldType@@YA?AW4OGRFieldType@@PEAUjson_object@@AEAW4OGRFieldSubType@@_N@Z
?Get@VSIFileManager@@CAPEAV1@XZ
?GetAccess@GDALDataset@@QEBA?AW4GDALAccess@@XZ
?GetAccess@GDALRasterBand@@QEAA?AW4GDALAccess@@XZ
?GetAcquisitionTimeFromString@GDALMDReaderBase@@MEAA_JPEBD@Z
?GetActualBlockSize@GDALRasterBand@@QEAA?AW4CPLErr@@HHPEAH0@Z
?GetActualURL@VSIFilesystemHandler@@UEAAPEBDPEBD@Z
?GetAdjustedNoDataValue@VRTComplexSource@@IEBANXZ
?GetAlgorithmName@GNMGenericNetwork@@UEAA?AVCPLString@@H_N@Z
?GetAllKeywords@CPLKeywordParser@@QEAAPEAPEADXZ
?GetAlternativeNameRef@OGRFieldDefn@@QEBAPEBDXZ
?GetAngularUnits@OGRSpatialReference@@QEBAN$$T@Z
?GetAngularUnits@OGRSpatialReference@@QEBANPEAPEAD@Z
?GetAngularUnits@OGRSpatialReference@@QEBANPEAPEBD@Z
?GetAreaOfUse@OGRSpatialReference@@QEBA_NPEAN000PEAPEBD@Z
?GetArray@CPLJSONObject@@QEBA?AVCPLJSONArray@@AEBV?$basic_string@DU?$char_traits@D@std@@V?$allocator@D@2@@std@@@Z
?GetArrowSchema@OGRLayer@@MEAAHPEAUArrowArrayStream@@PEAUArrowSchema@@@Z
?GetArrowStream@OGRLayer@@UEAA_NPEAUArrowArrayStream@@PEBQEBD@Z
?GetArrowStream@OGRLayerDecorator@@UEAA_NPEAUArrowArrayStream@@PEBQEBD@Z
?GetArrowStream@OGRMutexedLayer@@UEAA_NPEAUArrowArrayStream@@PEBQEBD@Z
?GetAsDouble@FieldValue@OGRFeature@@QEBANXZ
?GetAsDoubleList@FieldValue@OGRFeature@@QEBAAEBV?$vector@NV?$allocator@N@std@@@std@@XZ
?GetAsInteger64@FieldValue@OGRFeature@@QEBA_JXZ
?GetAsInteger64List@FieldValue@OGRFeature@@QEBAAEBV?$vector@_JV?$allocator@_J@std@@@std@@XZ
?GetAsInteger@FieldValue@OGRFeature@@QEBAHXZ
?GetAsIntegerList@FieldValue@OGRFeature@@QEBAAEBV?$vector@HV?$allocator@H@std@@@std@@XZ
?GetAsString@FieldValue@OGRFeature@@QEBAPEBDXZ
?GetAsStringList@FieldValue@OGRFeature@@QEBAAEBV?$vector@V?$basic_string@DU?$char_traits@D@std@@V?$allocator@D@2@@std@@V?$allocator@V?$basic_string@DU?$char_traits@D@std@@V?$allocator@D@2@@std@@@2@@std@@XZ
?GetAttrAcronym@S57ClassRegistrar@@QEAAPEBDH@Z
?GetAttrClass@S57ClassRegistrar@@QEAADH@Z
?GetAttrFilterPassThroughValue@OGRUnionLayer@@IEAAHXZ
?GetAttrInfo@S57ClassRegistrar@@QEAAPEBVS57AttrInfo@@H@Z
?GetAttrName@S57ClassRegistrar@@QEAAPEBDH@Z
?GetAttrNode@OGRSpatialReference@@QEAAPEAVOGR_SRSNode@@PEBD@Z
?GetAttrNode@OGRSpatialReference@@QEBAPEBVOGR_SRSNode@@PEBD@Z
?GetAttrQueryString@OGRLayer@@QEBAPEBDXZ
?GetAttrType@S57ClassRegistrar@@QEAADH@Z
?GetAttrValue@OGRSpatialReference@@QEBAPEBDPEBDH@Z
?GetAttribute@GDALIHasAttribute@@UEBA?AV?$shared_ptr@VGDALAttribute@@@std@@AEBV?$basic_string@DU?$char_traits@D@std@@V?$allocator@D@2@@3@@Z
?GetAttribute@MEMGroup@@UEBA?AV?$shared_ptr@VGDALAttribute@@@std@@AEBV?$basic_string@DU?$char_traits@D@std@@V?$allocator@D@2@@3@@Z
?GetAttributeFromAttributes@GDALIHasAttribute@@IEBA?AV?$shared_ptr@VGDALAttribute@@@std@@AEBV?$basic_string@DU?$char_traits@D@std@@V?$allocator@D@2@@3@@Z
?GetAttributeIndex@GMLGeometryPropertyDefn@@QEBAHXZ
?GetAttributes@GDALIHasAttribute@@UEBA?AV?$vector@V?$shared_ptr@VGDALAttribute@@@std@@V?$allocator@V?$shared_ptr@VGDALAttribute@@@std@@@2@@std@@PEBQEBD@Z
?GetAttributes@GDALMDArrayRegularlySpaced@@UEBA?AV?$vector@V?$shared_ptr@VGDALAttribute@@@std@@V?$allocator@V?$shared_ptr@VGDALAttribute@@@std@@@2@@std@@PEBQEBD@Z
?GetAttributes@MEMGroup@@UEBA?AV?$vector@V?$shared_ptr@VGDALAttribute@@@std@@V?$allocator@V?$shared_ptr@VGDALAttribute@@@std@@@2@@std@@PEBQEBD@Z
?GetAuthorityCode@OGRSpatialReference@@QEBAPEBDPEBD@Z
?GetAuthorityName@OGRSpatialReference@@QEBAPEBDPEBD@Z
?GetAxesCount@OGRSpatialReference@@QEBAHXZ
?GetAxis@OGRSpatialReference@@QEBAPEBDPEBDHPEAW4OGRAxisOrientation@@PEAN@Z
?GetAxisMappingStrategy@OGRSpatialReference@@QEBA?AW4OSRAxisMappingStrategy@@XZ
?GetBackwardPathLabel@GDALRelationship@@QEBAAEBV?$basic_string@DU?$char_traits@D@std@@V?$allocator@D@2@@std@@XZ
?GetBand@GDALRasterBand@@QEAAHXZ
?GetBand@GDALRasterBlock@@QEAAPEAVGDALRasterBand@@XZ
?GetBandCount@GDALAsyncReader@@QEBAHXZ
?GetBandMap@GDALAsyncReader@@QEAAPEAHXZ
?GetBandSpace@GDALAsyncReader@@QEBAHXZ
?GetBands@GDALDataset@@QEAA?AVBands@1@XZ
?GetBaseDataSource@OGRMutexedDataSource@@QEAAPEAVOGRDataSource@@XZ
?GetBaseLayer@OGRLayerDecorator@@QEBAPEAVOGRLayer@@XZ
?GetBlockSize@GDALAbstractMDArray@@UEBA?AV?$vector@_KV?$allocator@_K@std@@@std@@XZ
?GetBlockSize@GDALRasterBand@@QEAAXPEAH0@Z
?GetBlockSize@GDALRasterBlock@@QEBA_JXZ
?GetBlockSize@VRTWarpedDataset@@QEBAXPEAH0@Z
?GetBool@CPLJSONObject@@QEBA_NAEBV?$basic_string@DU?$char_traits@D@std@@V?$allocator@D@2@@std@@_N@Z
?GetBoxLength@GDALJP2Box@@QEBA_JXZ
?GetBoxOffset@GDALJP2Box@@QEBA_JXZ
?GetBuffer@GDALAsyncReader@@QEAAPEAXXZ
?GetBufferType@GDALAsyncReader@@QEBA?AW4GDALDataType@@XZ
?GetBufferXSize@GDALAsyncReader@@QEBAHXZ
?GetBufferYSize@GDALAsyncReader@@QEBAHXZ
?GetByIndex@DDFRecordIndex@@QEAAPEAVDDFRecord@@H@Z
?GetByteOrder@RawRasterBand@@QEBA?AW4ByteOrder@1@XZ
?GetCacheRootGroup@GDALMDArray@@IEBA?AV?$shared_ptr@VGDALGroup@@@std@@_NAEAV?$basic_string@DU?$char_traits@D@std@@V?$allocator@D@2@@3@@Z
?GetCardinality@GDALRelationship@@QEBA?AW4GDALRelationshipCardinality@@XZ
?GetCasterToCurvePolygon@OGRCurvePolygon@@MEBAP6APEAV1@PEAVOGRSurface@@@ZXZ
?GetCasterToCurvePolygon@OGRPolygon@@MEBAP6APEAVOGRCurvePolygon@@PEAVOGRSurface@@@ZXZ
?GetCasterToCurvePolygon@OGRPolyhedralSurface@@MEBAP6APEAVOGRCurvePolygon@@PEAVOGRSurface@@@ZXZ
?GetCasterToLineString@OGRCircularString@@MEBAP6APEAVOGRLineString@@PEAVOGRCurve@@@ZXZ
?GetCasterToLineString@OGRCompoundCurve@@MEBAP6APEAVOGRLineString@@PEAVOGRCurve@@@ZXZ
?GetCasterToLineString@OGRLineString@@MEBAP6APEAV1@PEAVOGRCurve@@@ZXZ
?GetCasterToLineString@OGRLinearRing@@MEBAP6APEAVOGRLineString@@PEAVOGRCurve@@@ZXZ
?GetCasterToLinearRing@OGRCircularString@@MEBAP6APEAVOGRLinearRing@@PEAVOGRCurve@@@ZXZ
?GetCasterToLinearRing@OGRCompoundCurve@@MEBAP6APEAVOGRLinearRing@@PEAVOGRCurve@@@ZXZ
?GetCasterToLinearRing@OGRLineString@@MEBAP6APEAVOGRLinearRing@@PEAVOGRCurve@@@ZXZ
?GetCasterToLinearRing@OGRLinearRing@@MEBAP6APEAV1@PEAVOGRCurve@@@ZXZ
?GetCasterToMultiPolygon@OGRPolyhedralSurface@@MEBAP6APEAVOGRMultiPolygon@@PEAV1@@ZXZ
?GetCasterToMultiPolygon@OGRTriangulatedSurface@@MEBAP6APEAVOGRMultiPolygon@@PEAVOGRPolyhedralSurface@@@ZXZ
?GetCasterToPolygon@OGRCurvePolygon@@MEBAP6APEAVOGRPolygon@@PEAVOGRSurface@@@ZXZ
?GetCasterToPolygon@OGRPolygon@@MEBAP6APEAV1@PEAVOGRSurface@@@ZXZ
?GetCasterToPolygon@OGRPolyhedralSurface@@MEBAP6APEAVOGRPolygon@@PEAVOGRSurface@@@ZXZ
?GetCasterToPolygon@OGRTriangle@@MEBAP6APEAVOGRPolygon@@PEAVOGRSurface@@@ZXZ
?GetCategoryNames@GDALPamRasterBand@@UEAAPEAPEADXZ
?GetCategoryNames@GDALProxyPoolRasterBand@@UEAAPEAPEADXZ
?GetCategoryNames@GDALProxyRasterBand@@UEAAPEAPEADXZ
?GetCategoryNames@GDALRasterBand@@UEAAPEAPEADXZ
?GetCategoryNames@RawRasterBand@@UEAAPEAPEADXZ
?GetCategoryNames@VRTRasterBand@@UEAAPEAPEADXZ
?GetChild@OGR_SRSNode@@QEAAPEAV1@H@Z
?GetChild@OGR_SRSNode@@QEBAPEBV1@H@Z
?GetChildCount@OGR_SRSNode@@QEBAHXZ
?GetChildren@CPLJSONObject@@QEBA?AV?$vector@VCPLJSONObject@@V?$allocator@VCPLJSONObject@@@std@@@std@@XZ
?GetClass@GDALExtendedDataType@@QEBA?AW4GDALExtendedDataTypeClass@@XZ
?GetClass@GMLFeature@@QEBAPEAVGMLFeatureClass@@XZ
?GetClientInfoByIndex@DDFRecordIndex@@QEAAPEAXH@Z
?GetColOfUsage@GDALDefaultRasterAttributeTable@@UEBAHW4GDALRATFieldUsage@@@Z
?GetColorEntry@GDALColorTable@@QEBAPEBUGDALColorEntry@@H@Z
?GetColorEntryAsRGB@GDALColorTable@@QEBAHHPEAUGDALColorEntry@@@Z
?GetColorEntryCount@GDALColorTable@@QEBAHXZ
?GetColorInterpretation@GDALPamRasterBand@@UEAA?AW4GDALColorInterp@@XZ
?GetColorInterpretation@GDALProxyRasterBand@@UEAA?AW4GDALColorInterp@@XZ
?GetColorInterpretation@GDALRasterBand@@UEAA?AW4GDALColorInterp@@XZ
?GetColorInterpretation@RawRasterBand@@UEAA?AW4GDALColorInterp@@XZ
?GetColorInterpretation@VRTRasterBand@@UEAA?AW4GDALColorInterp@@XZ
?GetColorTable@GDALPamRasterBand@@UEAAPEAVGDALColorTable@@XZ
?GetColorTable@GDALProxyPoolRasterBand@@UEAAPEAVGDALColorTable@@XZ
?GetColorTable@GDALProxyRasterBand@@UEAAPEAVGDALColorTable@@XZ
?GetColorTable@GDALRasterBand@@UEAAPEAVGDALColorTable@@XZ
?GetColorTable@RawRasterBand@@UEAAPEAVGDALColorTable@@XZ
?GetColorTable@VRTRasterBand@@UEAAPEAVGDALColorTable@@XZ
?GetColumnCount@GDALDefaultRasterAttributeTable@@UEBAHXZ
?GetComponents@GDALExtendedDataType@@QEBAAEBV?$vector@V?$unique_ptr@VGDALEDTComponent@@U?$default_delete@VGDALEDTComponent@@@std@@@std@@V?$allocator@V?$unique_ptr@VGDALEDTComponent@@U?$default_delete@VGDALEDTComponent@@@std@@@std@@@2@@std@@XZ
?GetCondition@GMLPropertyDefn@@QEBAPEBDXZ
?GetConnectorLayerName@GNMRule@@UEBA?AVCPLString@@XZ
?GetCoordinateEpoch@OGRSpatialReference@@QEBANXZ
?GetCoordinateVariables@GDALMDArray@@UEBA?AV?$vector@V?$shared_ptr@VGDALMDArray@@@std@@V?$allocator@V?$shared_ptr@VGDALMDArray@@@std@@@2@@std@@XZ
?GetCount@DDFRecordIndex@@QEAAHXZ
?GetCurveParameters@OGRGeometryFactory@@SAHNNNNNNAEAN00000@Z
?GetDSNM@S57Reader@@QEAAPEBDXZ
?GetData@MEMRasterBand@@QEBAPEAEXZ
?GetDataAxisToSRSAxisMapping@OGRSpatialReference@@QEBAAEBV?$vector@HV?$allocator@H@std@@@std@@XZ
?GetDataCoverageStatus@GDALRasterBand@@QEAAHHHHHHPEAN@Z
?GetDataLength@GDALJP2Box@@QEBA_JXZ
?GetDataOffset@GDALJP2Box@@QEBA_JXZ
?GetDataRef@GDALRasterBlock@@QEAAPEAXXZ
?GetDataSetStyleTable@OGRStyleMgr@@QEAAPEAVOGRStyleTable@@XZ
?GetDataType@GDALAttributeNumeric@@UEBAAEBVGDALExtendedDataType@@XZ
?GetDataType@GDALAttributeString@@UEBAAEBVGDALExtendedDataType@@XZ
?GetDataType@GDALMDArrayRegularlySpaced@@UEBAAEBVGDALExtendedDataType@@XZ
?GetDataType@GDALRasterBlock@@QEBA?AW4GDALDataType@@XZ
?GetDataType@MEMAbstractMDArray@@UEBAAEBVGDALExtendedDataType@@XZ
?GetDataset@GDALRasterBand@@QEAAPEAVGDALDataset@@XZ
?GetDataset@OGRLayer@@UEAAPEAVGDALDataset@@XZ
?GetDataset@OGRLayerDecorator@@UEAAPEAVGDALDataset@@XZ
?GetDataset@OGRMutexedLayer@@UEAAPEAVGDALDataset@@XZ
?GetDateTime@FieldValue@OGRFeature@@QEBA_NPEAH0000PEAM0@Z
?GetDefault@OGRFieldDefn@@QEBAPEBDXZ
?GetDefaultHistogram@GDALPamRasterBand@@UEAA?AW4CPLErr@@PEAN0PEAHPEAPEA_KHP6AHNPEBDPEAX@Z4@Z
?GetDefaultHistogram@GDALProxyRasterBand@@UEAA?AW4CPLErr@@PEAN0PEAHPEAPEA_KHP6AHNPEBDPEAX@Z4@Z
?GetDefaultHistogram@GDALRasterBand@@UEAA?AW4CPLErr@@PEAN0PEAHPEAPEA_KHP6AHNPEBDPEAX@Z4@Z
?GetDefaultHistogram@VRTRasterBand@@UEAA?AW4CPLErr@@PEAN0PEAHPEAPEA_KHP6AHNPEBDPEAX@Z4@Z
?GetDefaultRAT@GDALPamRasterBand@@UEAAPEAVGDALRasterAttributeTable@@XZ
?GetDefaultRAT@GDALProxyRasterBand@@UEAAPEAVGDALRasterAttributeTable@@XZ
?GetDefaultRAT@GDALRasterBand@@UEAAPEAVGDALRasterAttributeTable@@XZ
?GetDefaultRAT@VRTRasterBand@@UEAAPEAVGDALRasterAttributeTable@@XZ
?GetDefn@FieldValue@OGRFeature@@QEBAPEBVOGRFieldDefn@@XZ
?GetDefnRef@OGRFeature@@QEAAPEAVOGRFeatureDefn@@XZ
?GetDefnRef@OGRFeature@@QEBAPEBVOGRFeatureDefn@@XZ
?GetDescription@GDALMajorObject@@UEBAPEBDXZ
?GetDescription@OGRFieldDomain@@QEBAAEBV?$basic_string@DU?$char_traits@D@std@@V?$allocator@D@2@@std@@XZ
?GetDimensionCount@GDALAbstractMDArray@@UEBA_KXZ
?GetDimensions@GDALAttributeNumeric@@UEBAAEBV?$vector@V?$shared_ptr@VGDALDimension@@@std@@V?$allocator@V?$shared_ptr@VGDALDimension@@@std@@@2@@std@@XZ
?GetDimensions@GDALAttributeString@@UEBAAEBV?$vector@V?$shared_ptr@VGDALDimension@@@std@@V?$allocator@V?$shared_ptr@VGDALDimension@@@std@@@2@@std@@XZ
?GetDimensions@GDALGroup@@UEBA?AV?$vector@V?$shared_ptr@VGDALDimension@@@std@@V?$allocator@V?$shared_ptr@VGDALDimension@@@std@@@2@@std@@PEBQEBD@Z
?GetDimensions@GDALMDArrayRegularlySpaced@@UEBAAEBV?$vector@V?$shared_ptr@VGDALDimension@@@std@@V?$allocator@V?$shared_ptr@VGDALDimension@@@std@@@2@@std@@XZ
?GetDimensions@MEMAbstractMDArray@@UEBAAEBV?$vector@V?$shared_ptr@VGDALDimension@@@std@@V?$allocator@V?$shared_ptr@VGDALDimension@@@std@@@2@@std@@XZ
?GetDimensions@MEMGroup@@UEBA?AV?$vector@V?$shared_ptr@VGDALDimension@@@std@@V?$allocator@V?$shared_ptr@VGDALDimension@@@std@@@2@@std@@PEBQEBD@Z
?GetDimensionsSize@GDALAttribute@@QEBA?AV?$vector@_KV?$allocator@_K@std@@@std@@XZ
?GetDirection@GDALDimension@@QEBAAEBV?$basic_string@DU?$char_traits@D@std@@V?$allocator@D@2@@std@@XZ
?GetDirty@GDALRasterBlock@@QEBAHXZ
?GetDiskFreeSpace@VSIFilesystemHandler@@UEAA_JPEBD@Z
?GetDomainList@GDALMultiDomainMetadata@@QEAAPEAPEADXZ
?GetDomainName@OGRFieldDefn@@QEBAAEBV?$basic_string@DU?$char_traits@D@std@@V?$allocator@D@2@@std@@XZ
?GetDomainType@OGRFieldDomain@@QEBA?AW4OGRFieldDomainType@@XZ
?GetDouble@CPLJSONObject@@QEBANAEBV?$basic_string@DU?$char_traits@D@std@@V?$allocator@D@2@@std@@N@Z
?GetDouble@FieldValue@OGRFeature@@QEBANXZ
?GetDriver@GDALDataset@@UEAAPEAVGDALDriver@@XZ
?GetDriver@GDALDriverManager@@QEAAPEAVGDALDriver@@H@Z
?GetDriver@GDALProxyDataset@@UEAAPEAVGDALDriver@@XZ
?GetDriver@OGRSFDriverRegistrar@@QEAAPEAVGDALDriver@@H@Z
?GetDriverByName@GDALDriverManager@@QEAAPEAVGDALDriver@@PEBD@Z
?GetDriverByName@OGRSFDriverRegistrar@@QEAAPEAVGDALDriver@@PEBD@Z
?GetDriverByName_unlocked@GDALDriverManager@@AEBAPEAVGDALDriver@@PEBD@Z
?GetDriverCount@GDALDriverManager@@QEBAHXZ
?GetDriverCount@OGRSFDriverRegistrar@@QEAAHXZ
?GetDriverName@GDALDataset@@UEAAPEBDXZ
?GetDriver_unlocked@GDALDriverManager@@AEAAPEAVGDALDriver@@H@Z
?GetEPSGGeogCS@OGRSpatialReference@@QEBAHXZ
?GetEccentricity@OGRSpatialReference@@QEBANXZ
?GetElementName@GMLFeatureClass@@QEBAPEBDXZ
?GetElementNameLen@GMLFeatureClass@@QEBA_KXZ
?GetEmitErrors@OGRCoordinateTransformation@@UEBA_NXZ
?GetEnumeration@OGRCodedFieldDomain@@QEBAPEBUOGRCodedValue@@XZ
?GetExtension@OGRSpatialReference@@QEBAPEBDPEBD00@Z
?GetExtent@OGREditableLayer@@UEAAHHPEAVOGREnvelope@@H@Z
?GetExtent@OGREditableLayer@@UEAAHPEAVOGREnvelope@@H@Z
?GetExtent@OGRLayer@@UEAAHHPEAVOGREnvelope@@H@Z
?GetExtent@OGRLayer@@UEAAHPEAVOGREnvelope@@H@Z
?GetExtent@OGRLayerDecorator@@UEAAHHPEAVOGREnvelope@@H@Z
?GetExtent@OGRLayerDecorator@@UEAAHPEAVOGREnvelope@@H@Z
?GetExtent@OGRMutexedLayer@@UEAAHHPEAVOGREnvelope@@H@Z
?GetExtent@OGRMutexedLayer@@UEAAHPEAVOGREnvelope@@H@Z
?GetExtent@OGRUnionLayer@@UEAAHHPEAVOGREnvelope@@H@Z
?GetExtent@OGRUnionLayer@@UEAAHPEAVOGREnvelope@@H@Z
?GetExtent@S57Reader@@QEAAHPEAVOGREnvelope@@H@Z
?GetExtentInternal@OGRLayer@@IEAAHHPEAVOGREnvelope@@H@Z
?GetExtents@GMLFeatureClass@@QEAA_NPEAN000@Z
?GetExtraInfo@GMLFeatureClass@@QEAAPEBDXZ
?GetFID@GMLFeature@@QEBAPEBDXZ
?GetFID@OGRFeature@@QEBA_JXZ
?GetFIDColumn@OGRLayer@@UEAAPEBDXZ
?GetFIDColumn@OGRLayerDecorator@@UEAAPEBDXZ
?GetFIDColumn@OGRMutexedLayer@@UEAAPEBDXZ
?GetFILE@GDALJP2Box@@QEAAPEAU_iobuf@@XZ
?GetFPL@RawRasterBand@@QEBAPEAU_iobuf@@XZ
?GetFeature@OGREditableLayer@@UEAAPEAVOGRFeature@@_J@Z
?GetFeature@OGRLayer@@UEAAPEAVOGRFeature@@_J@Z
?GetFeature@OGRLayerDecorator@@UEAAPEAVOGRFeature@@_J@Z
?GetFeature@OGRMemLayer@@UEAAPEAVOGRFeature@@_J@Z
?GetFeature@OGRMutexedLayer@@UEAAPEAVOGRFeature@@_J@Z
?GetFeature@OGRUnionLayer@@UEAAPEAVOGRFeature@@_J@Z
?GetFeatureByGlobalFID@GNMGenericNetwork@@UEAAPEAVOGRFeature@@_J@Z
?GetFeatureCount@GMLFeatureClass@@QEAA_JXZ
?GetFeatureCount@OGREditableLayer@@UEAA_JH@Z
?GetFeatureCount@OGRLayer@@UEAA_JH@Z
?GetFeatureCount@OGRLayerDecorator@@UEAA_JH@Z
?GetFeatureCount@OGRMemLayer@@UEAA_JH@Z
?GetFeatureCount@OGRMutexedLayer@@UEAA_JH@Z
?GetFeatureCount@OGRUnionLayer@@UEAA_JH@Z
?GetFeatureRef@OGRMemLayer@@AEAAPEBVOGRFeature@@_J@Z
?GetFeatures@GDALDataset@@QEAA?AVFeatures@1@XZ
?GetFeaturesRead@OGRLayer@@QEAA_JXZ
?GetFieldAsBinary@OGRFeature@@QEBAPEAEHPEAH@Z
?GetFieldAsDateTime@OGRFeature@@QEBAHHPEAH000000@Z
?GetFieldAsDateTime@OGRFeature@@QEBAHHPEAH0000PEAM0@Z
?GetFieldAsDouble@OGRFeature@@QEBANH@Z
?GetFieldAsDouble@OGRFeature@@QEBANPEBD@Z
?GetFieldAsDoubleList@OGRFeature@@QEBAPEBNHPEAH@Z
?GetFieldAsDoubleList@OGRFeature@@QEBAPEBNPEBDPEAH@Z
?GetFieldAsDoubleUnsafe@OGRFeature@@QEBANH@Z
?GetFieldAsInteger64@OGRFeature@@QEBA_JH@Z
?GetFieldAsInteger64@OGRFeature@@QEBA_JPEBD@Z
?GetFieldAsInteger64List@OGRFeature@@QEBAPEB_JHPEAH@Z
?GetFieldAsInteger64List@OGRFeature@@QEBAPEB_JPEBDPEAH@Z
?GetFieldAsInteger64Unsafe@OGRFeature@@QEBA_JH@Z
?GetFieldAsInteger@OGRFeature@@QEBAHH@Z
?GetFieldAsInteger@OGRFeature@@QEBAHPEBD@Z
?GetFieldAsIntegerList@OGRFeature@@QEBAPEBHHPEAH@Z
?GetFieldAsIntegerList@OGRFeature@@QEBAPEBHPEBDPEAH@Z
?GetFieldAsIntegerUnsafe@OGRFeature@@QEBAHH@Z
?GetFieldAsSerializedJSon@OGRFeature@@QEBAPEADH@Z
?GetFieldAsString@OGRFeature@@QEBAPEBDH@Z
?GetFieldAsString@OGRFeature@@QEBAPEBDPEBD@Z
?GetFieldAsStringList@OGRFeature@@QEBAPEAPEADH@Z
?GetFieldAsStringList@OGRFeature@@QEBAPEAPEADPEBD@Z
?GetFieldAsStringUnsafe@OGRFeature@@QEBAPEBDH@Z
?GetFieldCount@OGRFeature@@QEBAHXZ
?GetFieldCount@OGRFeatureDefn@@UEBAHXZ
?GetFieldCountUnsafe@OGRFeatureDefn@@QEBAHXZ
?GetFieldDefn@OGRFeatureDefn@@UEAAPEAVOGRFieldDefn@@H@Z
?GetFieldDefn@OGRFeatureDefn@@UEBAPEBVOGRFieldDefn@@H@Z
?GetFieldDefnRef@OGRFeature@@QEAAPEAVOGRFieldDefn@@H@Z
?GetFieldDefnRef@OGRFeature@@QEBAPEBVOGRFieldDefn@@H@Z
?GetFieldDefnUnsafe@OGRFeatureDefn@@QEAAPEAVOGRFieldDefn@@H@Z
?GetFieldDefnUnsafe@OGRFeatureDefn@@QEBAPEBVOGRFieldDefn@@H@Z
?GetFieldDomain@GDALDataset@@UEBAPEBVOGRFieldDomain@@AEBV?$basic_string@DU?$char_traits@D@std@@V?$allocator@D@2@@std@@@Z
?GetFieldDomain@OGRMutexedDataSource@@UEBAPEBVOGRFieldDomain@@AEBV?$basic_string@DU?$char_traits@D@std@@V?$allocator@D@2@@std@@@Z
?GetFieldDomainNames@GDALDataset@@UEBA?AV?$vector@V?$basic_string@DU?$char_traits@D@std@@V?$allocator@D@2@@std@@V?$allocator@V?$basic_string@DU?$char_traits@D@std@@V?$allocator@D@2@@std@@@2@@std@@PEBQEBD@Z
?GetFieldDomainNames@OGRMutexedDataSource@@UEBA?AV?$vector@V?$basic_string@DU?$char_traits@D@std@@V?$allocator@D@2@@std@@V?$allocator@V?$basic_string@DU?$char_traits@D@std@@V?$allocator@D@2@@std@@@2@@std@@PEBQEBD@Z
?GetFieldIndex@OGRFeature@@QEBAHPEBD@Z
?GetFieldIndex@OGRFeatureDefn@@UEBAHPEBD@Z
?GetFieldIndexCaseSensitive@OGRFeatureDefn@@QEBAHPEBD@Z
?GetFieldSubType@OGRFieldDomain@@QEBA?AW4OGRFieldSubType@@XZ
?GetFieldSubTypeName@OGRFieldDefn@@SAPEBDW4OGRFieldSubType@@@Z
?GetFieldType@OGRFieldDomain@@QEBA?AW4OGRFieldType@@XZ
?GetFieldTypeName@OGRFieldDefn@@SAPEBDW4OGRFieldType@@@Z
?GetFileHandle@GDALJP2AbstractDataset@@MEAAPEAU_iobuf@@XZ
?GetFileList@GDALDataset@@UEAAPEAPEADXZ
?GetFileList@GDALJP2AbstractDataset@@UEAAPEAPEADXZ
?GetFileList@GDALPamDataset@@UEAAPEAPEADXZ
?GetFileList@GDALProxyDataset@@UEAAPEAPEADXZ
?GetFileList@GNMNetwork@@UEAAPEAPEADXZ
?GetFileList@VRTDataset@@UEAAPEAPEADXZ
?GetFileList@VRTRasterBand@@UEAAXPEAPEAPEADPEAH1PEAU_CPLHashSet@@@Z
?GetFileList@VRTRawRasterBand@@UEAAXPEAPEAPEADPEAH1PEAU_CPLHashSet@@@Z
?GetFileList@VRTSimpleSource@@UEAAXPEAPEAPEADPEAH1PEAU_CPLHashSet@@@Z
?GetFileList@VRTSource@@UEAAXPEAPEAPEADPEAH1PEAU_CPLHashSet@@@Z
?GetFileList@VRTSourcedRasterBand@@UEAAXPEAPEAPEADPEAH1PEAU_CPLHashSet@@@Z
?GetFileList@VRTWarpedDataset@@UEAAPEAPEADXZ
?GetFileMetadata@VSIFilesystemHandler@@UEAAPEAPEADPEBD0PEBQEBD@Z
?GetFilename@GDALMDArrayRegularlySpaced@@UEBAAEBV?$basic_string@DU?$char_traits@D@std@@V?$allocator@D@2@@std@@XZ
?GetForwardPathLabel@GDALRelationship@@QEBAAEBV?$basic_string@DU?$char_traits@D@std@@V?$allocator@D@2@@std@@XZ
?GetFullName@GDALAbstractMDArray@@QEBAAEBV?$basic_string@DU?$char_traits@D@std@@V?$allocator@D@2@@std@@XZ
?GetFullName@GDALDimension@@QEBAAEBV?$basic_string@DU?$char_traits@D@std@@V?$allocator@D@2@@std@@XZ
?GetFullName@GDALGroup@@QEBAAEBV?$basic_string@DU?$char_traits@D@std@@V?$allocator@D@2@@std@@XZ
?GetGCPCount@GDALDataset@@UEAAHXZ
?GetGCPCount@GDALGeorefPamDataset@@UEAAHXZ
?GetGCPCount@GDALPamDataset@@UEAAHXZ
?GetGCPCount@GDALProxyDataset@@UEAAHXZ
?GetGCPCount@MEMDataset@@UEAAHXZ
?GetGCPCount@VRTDataset@@UEAAHXZ
?GetGCPProjection@GDALDataset@@QEAAPEBDXZ
?GetGCPSpatialRef@GDALDataset@@UEBAPEBVOGRSpatialReference@@XZ
?GetGCPSpatialRef@GDALGeorefPamDataset@@UEBAPEBVOGRSpatialReference@@XZ
?GetGCPSpatialRef@GDALPamDataset@@UEBAPEBVOGRSpatialReference@@XZ
?GetGCPSpatialRef@GDALProxyDataset@@UEBAPEBVOGRSpatialReference@@XZ
?GetGCPSpatialRef@GDALProxyPoolDataset@@UEBAPEBVOGRSpatialReference@@XZ
?GetGCPSpatialRef@MEMDataset@@UEBAPEBVOGRSpatialReference@@XZ
?GetGCPSpatialRef@VRTDataset@@UEBAPEBVOGRSpatialReference@@XZ
?GetGCPs@GDALDataset@@UEAAPEBUGDAL_GCP@@XZ
?GetGCPs@GDALGeorefPamDataset@@UEAAPEBUGDAL_GCP@@XZ
?GetGCPs@GDALPamDataset@@UEAAPEBUGDAL_GCP@@XZ
?GetGCPs@GDALProxyDataset@@UEAAPEBUGDAL_GCP@@XZ
?GetGCPs@GDALProxyPoolDataset@@UEAAPEBUGDAL_GCP@@XZ
?GetGCPs@MEMDataset@@UEAAPEBUGDAL_GCP@@XZ
?GetGCPs@VRTDataset@@UEAAPEBUGDAL_GCP@@XZ
?GetGDALDataset@GDALAsyncReader@@QEAAPEAVGDALDataset@@XZ
?GetGMLJP2GeoreferencingInfo@GDALJP2Metadata@@AEAAHAEAHQEAN11AEAPEBDAEAVCPLString@@0@Z
?GetGeoTransform@GDALDataset@@UEAA?AW4CPLErr@@PEAN@Z
?GetGeoTransform@GDALGeorefPamDataset@@UEAA?AW4CPLErr@@PEAN@Z
?GetGeoTransform@GDALPamDataset@@UEAA?AW4CPLErr@@PEAN@Z
?GetGeoTransform@GDALProxyDataset@@UEAA?AW4CPLErr@@PEAN@Z
?GetGeoTransform@GDALProxyPoolDataset@@UEAA?AW4CPLErr@@PEAN@Z
?GetGeoTransform@MEMDataset@@UEAA?AW4CPLErr@@PEAN@Z
?GetGeoTransform@VRTDataset@@UEAA?AW4CPLErr@@PEAN@Z
?GetGeomFieldCount@OGRFeature@@QEBAHXZ
?GetGeomFieldCount@OGRFeatureDefn@@UEBAHXZ
?GetGeomFieldDefn@OGRFeatureDefn@@UEAAPEAVOGRGeomFieldDefn@@H@Z
?GetGeomFieldDefn@OGRFeatureDefn@@UEBAPEBVOGRGeomFieldDefn@@H@Z
?GetGeomFieldDefnRef@OGRFeature@@QEAAPEAVOGRGeomFieldDefn@@H@Z
?GetGeomFieldDefnRef@OGRFeature@@QEBAPEBVOGRGeomFieldDefn@@H@Z
?GetGeomFieldFilter@OGRLayer@@QEBAHXZ
?GetGeomFieldIndex@OGRFeature@@QEBAHPEBD@Z
?GetGeomFieldIndex@OGRFeatureDefn@@UEBAHPEBD@Z
?GetGeomFieldRef@OGRFeature@@QEAAPEAVOGRGeometry@@H@Z
?GetGeomFieldRef@OGRFeature@@QEAAPEAVOGRGeometry@@PEBD@Z
?GetGeomFieldRef@OGRFeature@@QEBAPEBVOGRGeometry@@H@Z
?GetGeomFieldRef@OGRFeature@@QEBAPEBVOGRGeometry@@PEBD@Z
?GetGeomType@OGREditableLayer@@UEAA?AW4OGRwkbGeometryType@@XZ
?GetGeomType@OGRFeatureDefn@@UEBA?AW4OGRwkbGeometryType@@XZ
?GetGeomType@OGRLayer@@UEAA?AW4OGRwkbGeometryType@@XZ
?GetGeomType@OGRLayerDecorator@@UEAA?AW4OGRwkbGeometryType@@XZ
?GetGeomType@OGRMutexedLayer@@UEAA?AW4OGRwkbGeometryType@@XZ
?GetGeomType@OGRUnionLayer@@UEAA?AW4OGRwkbGeometryType@@XZ
?GetGeometryColumn@OGREditableLayer@@UEAAPEBDXZ
?GetGeometryColumn@OGRLayer@@UEAAPEBDXZ
?GetGeometryColumn@OGRLayerDecorator@@UEAAPEBDXZ
?GetGeometryColumn@OGRMutexedLayer@@UEAAPEBDXZ
?GetGeometryCount@GMLFeature@@QEBAHXZ
?GetGeometryList@GMLFeature@@QEBAPEBQEBUCPLXMLNode@@XZ
?GetGeometryProperty@GMLFeatureClass@@QEBAPEAVGMLGeometryPropertyDefn@@H@Z
?GetGeometryPropertyCount@GMLFeatureClass@@QEBAHXZ
?GetGeometryPropertyIndexBySrcElement@GMLFeatureClass@@QEBAHPEBD@Z
?GetGeometryRef@GMLFeature@@QEBAPEBUCPLXMLNode@@H@Z
?GetGeometryRef@OGRFeature@@QEAAPEAVOGRGeometry@@XZ
?GetGeometryRef@OGRFeature@@QEBAPEBVOGRGeometry@@XZ
?GetGeometryTypes@OGRLayer@@UEAAPEAUOGRGeometryTypeCounter@@HHAEAHP6AHNPEBDPEAX@Z2@Z
?GetGlob@OGRGlobFieldDomain@@QEBAAEBV?$basic_string@DU?$char_traits@D@std@@V?$allocator@D@2@@std@@XZ
?GetGroupNames@GDALGroup@@UEBA?AV?$vector@V?$basic_string@DU?$char_traits@D@std@@V?$allocator@D@2@@std@@V?$allocator@V?$basic_string@DU?$char_traits@D@std@@V?$allocator@D@2@@std@@@2@@std@@PEBQEBD@Z
?GetGroupNames@MEMGroup@@UEBA?AV?$vector@V?$basic_string@DU?$char_traits@D@std@@V?$allocator@D@2@@std@@V?$allocator@V?$basic_string@DU?$char_traits@D@std@@V?$allocator@D@2@@std@@@2@@std@@PEBQEBD@Z
?GetHandler@VSIFileManager@@SAPEAVVSIFilesystemHandler@@PEBD@Z
?GetHistogram@GDALPamRasterBand@@UEAA?AW4CPLErr@@NNHPEA_KHHP6AHNPEBDPEAX@Z2@Z
?GetHistogram@GDALProxyRasterBand@@UEAA?AW4CPLErr@@NNHPEA_KHHP6AHNPEBDPEAX@Z2@Z
?GetHistogram@GDALRasterBand@@UEAA?AW4CPLErr@@NNHPEA_KHHP6AHNPEBDPEAX@Z2@Z
?GetHistogram@VRTComplexSource@@UEAA?AW4CPLErr@@HHNNHPEA_KHHP6AHNPEBDPEAX@Z2@Z
?GetHistogram@VRTDerivedRasterBand@@UEAA?AW4CPLErr@@NNHPEA_KHHP6AHNPEBDPEAX@Z2@Z
?GetHistogram@VRTRasterBand@@UEAA?AW4CPLErr@@NNHPEA_KHHP6AHNPEBDPEAX@Z2@Z
?GetHistogram@VRTSimpleSource@@UEAA?AW4CPLErr@@HHNNHPEA_KHHP6AHNPEBDPEAX@Z2@Z
?GetHistogram@VRTSourcedRasterBand@@UEAA?AW4CPLErr@@NNHPEA_KHHP6AHNPEBDPEAX@Z2@Z
?GetImgOffset@RawRasterBand@@QEBA_KXZ
?GetIndex@FieldValue@OGRFeature@@QEBAHXZ
?GetIndex@OGRLayer@@QEAAPEAVOGRLayerAttrIndex@@XZ
?GetIndexColorTranslationTo@GDALRasterBand@@QEAAPEAEPEAV1@PEAEPEAH@Z
?GetIndexingVariable@GDALDimension@@UEBA?AV?$shared_ptr@VGDALMDArray@@@std@@XZ
?GetIndexingVariable@GDALDimensionWeakIndexingVar@@UEBA?AV?$shared_ptr@VGDALMDArray@@@std@@XZ
?GetInnerMostGroup@GDALGroup@@IEBAPEBV1@AEBV?$basic_string@DU?$char_traits@D@std@@V?$allocator@D@2@@std@@AEAV?$shared_ptr@VGDALGroup@@@3@AEAV23@@Z
?GetInteger64@FieldValue@OGRFeature@@QEBA_JXZ
?GetInteger@CPLJSONObject@@QEBAHAEBV?$basic_string@DU?$char_traits@D@std@@V?$allocator@D@2@@std@@H@Z
?GetInteger@FieldValue@OGRFeature@@QEBAHXZ
?GetInternalHandle@CPLJSONObject@@QEBAPEAXXZ
?GetInternalHandle@GDALDataset@@UEAAPEAXPEBD@Z
?GetInternalHandle@GDALProxyDataset@@UEAAPEAXPEBD@Z
?GetInternalHandle@GDALProxyPoolDataset@@UEAAPEAXPEBD@Z
?GetInternalHandle@MEMDataset@@UEAAPEAXPEBD@Z
?GetInvFlattening@OGRSpatialReference@@QEBANPEAH@Z
?GetIterator@OGRMemLayer@@AEAAPEAVIOGRMemLayerFeatureIterator@@XZ
?GetJsonObject@NASAKeywordHandler@@QEBA?AVCPLJSONObject@@XZ
?GetJustify@OGRFieldDefn@@QEBA?AW4OGRJustification@@XZ
?GetKeyword@CPLKeywordParser@@QEAAPEBDPEBD0@Z
?GetKeyword@NASAKeywordHandler@@QEAAPEBDPEBD0@Z
?GetKeywordList@NASAKeywordHandler@@QEAAPEAPEADXZ
?GetLastErrorArrowArrayStream@OGRLayer@@KAPEBDPEAUArrowArrayStream@@@Z
?GetLastStyleName@OGRStyleTable@@QEAAPEBDXZ
?GetLayer@GDALDataset@@UEAAPEAVOGRLayer@@H@Z
?GetLayer@GDALJP2AbstractDataset@@UEAAPEAVOGRLayer@@H@Z
?GetLayer@GNMGenericNetwork@@UEAAPEAVOGRLayer@@H@Z
?GetLayer@OGRMutexedDataSource@@UEAAPEAVOGRLayer@@H@Z
?GetLayerByName@GDALDataset@@UEAAPEAVOGRLayer@@PEBD@Z
?GetLayerByName@OGRMutexedDataSource@@UEAAPEAVOGRLayer@@PEBD@Z
?GetLayerCount@GDALDataset@@UEAAHXZ
?GetLayerCount@GDALJP2AbstractDataset@@UEAAHXZ
?GetLayerCount@GNMGenericNetwork@@UEAAHXZ
?GetLayerCount@OGRMutexedDataSource@@UEAAHXZ
?GetLayerDefn@OGREditableLayer@@UEAAPEAVOGRFeatureDefn@@XZ
?GetLayerDefn@OGRLayerDecorator@@UEAAPEAVOGRFeatureDefn@@XZ
?GetLayerDefn@OGRMemLayer@@UEAAPEAVOGRFeatureDefn@@XZ
?GetLayerDefn@OGRMutexedLayer@@UEAAPEAVOGRFeatureDefn@@XZ
?GetLayerDefn@OGRUnionLayer@@UEAAPEAVOGRFeatureDefn@@XZ
?GetLayers@GDALDataset@@QEAA?AVLayers@1@XZ
?GetLeftMappingTableFields@GDALRelationship@@QEBAAEBV?$vector@V?$basic_string@DU?$char_traits@D@std@@V?$allocator@D@2@@std@@V?$allocator@V?$basic_string@DU?$char_traits@D@std@@V?$allocator@D@2@@std@@@2@@std@@XZ
?GetLeftTableFields@GDALRelationship@@QEBAAEBV?$vector@V?$basic_string@DU?$char_traits@D@std@@V?$allocator@D@2@@std@@V?$allocator@V?$basic_string@DU?$char_traits@D@std@@V?$allocator@D@2@@std@@@2@@std@@XZ
?GetLeftTableName@GDALRelationship@@QEBAAEBV?$basic_string@DU?$char_traits@D@std@@V?$allocator@D@2@@std@@XZ
?GetLineOffset@RawRasterBand@@QEBAHXZ
?GetLineSpace@GDALAsyncReader@@QEBAHXZ
?GetLinearBinning@GDALDefaultRasterAttributeTable@@UEBAHPEAN0@Z
?GetLinearBinning@GDALRasterAttributeTable@@UEBAHPEAN0@Z
?GetLinearUnits@OGRSpatialReference@@QEBAN$$T@Z
?GetLinearUnits@OGRSpatialReference@@QEBANPEAPEAD@Z
?GetLinearUnits@OGRSpatialReference@@QEBANPEAPEBD@Z
?GetLockedBlockRef@GDALRasterBand@@QEAAPEAVGDALRasterBlock@@HHH@Z
?GetLong@CPLJSONObject@@QEBA_JAEBV?$basic_string@DU?$char_traits@D@std@@V?$allocator@D@2@@std@@_J@Z
?GetMDArrayNames@GDALGroup@@UEBA?AV?$vector@V?$basic_string@DU?$char_traits@D@std@@V?$allocator@D@2@@std@@V?$allocator@V?$basic_string@DU?$char_traits@D@std@@V?$allocator@D@2@@std@@@2@@std@@PEBQEBD@Z
?GetMDArrayNames@MEMGroup@@UEBA?AV?$vector@V?$basic_string@DU?$char_traits@D@std@@V?$allocator@D@2@@std@@V?$allocator@V?$basic_string@DU?$char_traits@D@std@@V?$allocator@D@2@@std@@@2@@std@@PEBQEBD@Z
?GetMOFlags@GDALMajorObject@@QEBAHXZ
?GetMappingTableName@GDALRelationship@@QEBAAEBV?$basic_string@DU?$char_traits@D@std@@V?$allocator@D@2@@std@@XZ
?GetMask@GDALMDArray@@UEBA?AV?$shared_ptr@VGDALMDArray@@@std@@PEBQEBD@Z
?GetMaskBand@GDALAllValidMaskBand@@UEAAPEAVGDALRasterBand@@XZ
?GetMaskBand@GDALDefaultOverviews@@QEAAPEAVGDALRasterBand@@H@Z
?GetMaskBand@GDALProxyPoolRasterBand@@UEAAPEAVGDALRasterBand@@XZ
?GetMaskBand@GDALProxyRasterBand@@UEAAPEAVGDALRasterBand@@XZ
?GetMaskBand@GDALRasterBand@@UEAAPEAV1@XZ
?GetMaskBand@VRTRasterBand@@UEAAPEAVGDALRasterBand@@XZ
?GetMaskBandMainBand@VRTSimpleSource@@QEAAPEAVGDALRasterBand@@XZ
?GetMaskFlags@GDALAllValidMaskBand@@UEAAHXZ
?GetMaskFlags@GDALDefaultOverviews@@QEAAHH@Z
?GetMaskFlags@GDALProxyRasterBand@@UEAAHXZ
?GetMaskFlags@GDALRasterBand@@UEAAHXZ
?GetMaskFlags@VRTRasterBand@@UEAAHXZ
?GetMaskValueRange@GDALAllValidMaskBand@@UEBA?AW4GDALMaskValueRange@@XZ
?GetMaskValueRange@GDALNoDataMaskBand@@UEBA?AW4GDALMaskValueRange@@XZ
?GetMaskValueRange@GDALNoDataValuesMaskBand@@UEBA?AW4GDALMaskValueRange@@XZ
?GetMaskValueRange@GDALProxyRasterBand@@UEBA?AW4GDALMaskValueRange@@XZ
?GetMaskValueRange@GDALRasterBand@@UEBA?AW4GDALMaskValueRange@@XZ
?GetMax@OGRRangeFieldDomain@@QEBAAEBTOGRField@@AEA_N@Z
?GetMaxFeaturesInBatch@OGRArrowArrayHelper@@SAHAEBVCPLStringList@@@Z
?GetMaxSimultaneouslyOpened@OGRLayerPool@@QEBAHXZ
?GetMaxStringLength@GDALExtendedDataType@@QEBA_KXZ
?GetMaximum@GDALProxyRasterBand@@UEAANPEAH@Z
?GetMaximum@GDALRasterBand@@UEAANPEAH@Z
?GetMaximum@VRTComplexSource@@UEAANHHPEAH@Z
?GetMaximum@VRTDerivedRasterBand@@UEAANPEAH@Z
?GetMaximum@VRTSimpleSource@@UEAANHHPEAH@Z
?GetMaximum@VRTSourcedRasterBand@@UEAANPEAH@Z
?GetMergePolicy@OGRFieldDomain@@QEBA?AW4OGRFieldDomainMergePolicy@@XZ
?GetMetadata@GDALDataset@@UEAAPEAPEADPEBD@Z
?GetMetadata@GDALGeorefPamDataset@@UEAAPEAPEADPEBD@Z
?GetMetadata@GDALJP2AbstractDataset@@UEAAPEAPEADPEBD@Z
?GetMetadata@GDALMajorObject@@UEAAPEAPEADPEBD@Z
?GetMetadata@GDALMultiDomainMetadata@@QEAAPEAPEADPEBD@Z
?GetMetadata@GDALPamDataset@@UEAAPEAPEADPEBD@Z
?GetMetadata@GDALProxyDataset@@UEAAPEAPEADPEBD@Z
?GetMetadata@GDALProxyPoolDataset@@UEAAPEAPEADPEBD@Z
?GetMetadata@GDALProxyPoolRasterBand@@UEAAPEAPEADPEBD@Z
?GetMetadata@GDALProxyRasterBand@@UEAAPEAPEADPEBD@Z
?GetMetadata@OGRLayerDecorator@@UEAAPEAPEADPEBD@Z
?GetMetadata@OGRMutexedDataSource@@UEAAPEAPEADPEBD@Z
?GetMetadata@OGRMutexedLayer@@UEAAPEAPEADPEBD@Z
?GetMetadata@VRTDataset@@UEAAPEAPEADPEBD@Z
?GetMetadata@VRTSourcedRasterBand@@UEAAPEAPEADPEBD@Z
?GetMetadataDomain@GDALMDReaderBase@@UEAAPEAPEADPEBD@Z
?GetMetadataDomainList@GDALDataset@@UEAAPEAPEADXZ
?GetMetadataDomainList@GDALMajorObject@@UEAAPEAPEADXZ
?GetMetadataDomainList@GDALProxyDataset@@UEAAPEAPEADXZ
?GetMetadataDomainList@GDALProxyRasterBand@@UEAAPEAPEADXZ
?GetMetadataDomainList@VRTSourcedRasterBand@@UEAAPEAPEADXZ
?GetMetadataFiles@GDALMDReaderPleiades@@UEBAPEAPEADXZ
?GetMetadataItem@GDALGeorefPamDataset@@UEAAPEBDPEBD0@Z
?GetMetadataItem@GDALJP2AbstractDataset@@UEAAPEBDPEBD0@Z
?GetMetadataItem@GDALMajorObject@@UEAAPEBDPEBD0@Z
?GetMetadataItem@GDALMultiDomainMetadata@@QEAAPEBDPEBD0@Z
?GetMetadataItem@GDALPamDataset@@UEAAPEBDPEBD0@Z
?GetMetadataItem@GDALProxyDataset@@UEAAPEBDPEBD0@Z
?GetMetadataItem@GDALProxyPoolDataset@@UEAAPEBDPEBD0@Z
?GetMetadataItem@GDALProxyPoolRasterBand@@UEAAPEBDPEBD0@Z
?GetMetadataItem@GDALProxyRasterBand@@UEAAPEBDPEBD0@Z
?GetMetadataItem@OGRLayerDecorator@@UEAAPEBDPEBD0@Z
?GetMetadataItem@OGRMutexedDataSource@@UEAAPEBDPEBD0@Z
?GetMetadataItem@OGRMutexedLayer@@UEAAPEBDPEBD0@Z
?GetMetadataItem@VRTSourcedRasterBand@@UEAAPEBDPEBD0@Z
?GetMin@OGRRangeFieldDomain@@QEBAAEBTOGRField@@AEA_N@Z
?GetMinimum@GDALProxyRasterBand@@UEAANPEAH@Z
?GetMinimum@GDALRasterBand@@UEAANPEAH@Z
?GetMinimum@VRTComplexSource@@UEAANHHPEAH@Z
?GetMinimum@VRTDerivedRasterBand@@UEAANPEAH@Z
?GetMinimum@VRTSimpleSource@@UEAANHHPEAH@Z
?GetMinimum@VRTSourcedRasterBand@@UEAANPEAH@Z
?GetModule@S57Reader@@QEAAPEAVDDFModule@@XZ
?GetName@CPLJSONObject@@QEBA?AV?$basic_string@DU?$char_traits@D@std@@V?$allocator@D@2@@std@@XZ
?GetName@FieldValue@OGRFeature@@QEBAPEBDXZ
?GetName@GDALAbstractMDArray@@QEBAAEBV?$basic_string@DU?$char_traits@D@std@@V?$allocator@D@2@@std@@XZ
?GetName@GDALDimension@@QEBAAEBV?$basic_string@DU?$char_traits@D@std@@V?$allocator@D@2@@std@@XZ
?GetName@GDALEDTComponent@@QEBAAEBV?$basic_string@DU?$char_traits@D@std@@V?$allocator@D@2@@std@@XZ
?GetName@GDALExtendedDataType@@QEBAAEBV?$basic_string@DU?$char_traits@D@std@@V?$allocator@D@2@@std@@XZ
?GetName@GDALGroup@@QEBAAEBV?$basic_string@DU?$char_traits@D@std@@V?$allocator@D@2@@std@@XZ
?GetName@GDALRelationship@@QEBAAEBV?$basic_string@DU?$char_traits@D@std@@V?$allocator@D@2@@std@@XZ
?GetName@GMLFeatureClass@@QEBAPEBDXZ
?GetName@GMLGeometryPropertyDefn@@QEBAPEBDXZ
?GetName@GMLPropertyDefn@@QEBAPEBDXZ
?GetName@GNMNetwork@@UEBAPEBDXZ
?GetName@OGRFeatureDefn@@UEBAPEBDXZ
?GetName@OGRFieldDomain@@QEBAAEBV?$basic_string@DU?$char_traits@D@std@@V?$allocator@D@2@@std@@XZ
?GetName@OGRLayer@@UEAAPEBDXZ
?GetName@OGRLayerDecorator@@UEAAPEBDXZ
?GetName@OGRMutexedDataSource@@UEAAPEBDXZ
?GetName@OGRMutexedLayer@@UEAAPEBDXZ
?GetName@OGRSpatialReference@@QEBAPEBDXZ
?GetName@OGRUnionLayer@@UEAAPEBDXZ
?GetNameOfCol@GDALDefaultRasterAttributeTable@@UEBAPEBDH@Z
?GetNameRef@OGRFieldDefn@@QEBAPEBDXZ
?GetNameRef@OGRGeomFieldDefn@@QEBAPEBDXZ
?GetNativeData@OGRFeature@@QEBAPEBDXZ
?GetNativeFileDescriptor@VSIVirtualHandle@@UEAAPEAXXZ
?GetNativeMediaType@OGRFeature@@QEBAPEBDXZ
?GetNewGlobalFID@GNMGenericNetwork@@UEAA_JXZ
?GetNewLine@CPLJSonStreamingWriter@@QEBA_NXZ
?GetNewVirtualFID@GNMGenericNetwork@@MEAA_JXZ
?GetNextArrowArray@OGRLayer@@MEAAHPEAUArrowArrayStream@@PEAUArrowArray@@@Z
?GetNextFEIndex@S57Reader@@QEAAHH@Z
?GetNextFeature@GDALDataset@@UEAAPEAVOGRFeature@@PEAPEAVOGRLayer@@PEANP6AHNPEBDPEAX@Z3@Z
?GetNextFeature@OGREditableLayer@@UEAAPEAVOGRFeature@@XZ
?GetNextFeature@OGRLayerDecorator@@UEAAPEAVOGRFeature@@XZ
?GetNextFeature@OGRMemLayer@@UEAAPEAVOGRFeature@@XZ
?GetNextFeature@OGRMutexedLayer@@UEAAPEAVOGRFeature@@XZ
?GetNextFeature@OGRUnionLayer@@UEAAPEAVOGRFeature@@XZ
?GetNextJob@CPLWorkerThreadPool@@AEAAPEAUCPLWorkerThreadJob@@PEAUCPLWorkerThread@@@Z
?GetNextReadFID@OGRMemLayer@@QEAA_JXZ
?GetNextStyle@OGRStyleTable@@QEAAPEBDXZ
?GetNoDataValue@GDALPamRasterBand@@UEAANPEAH@Z
?GetNoDataValue@GDALProxyRasterBand@@UEAANPEAH@Z
?GetNoDataValue@GDALRasterBand@@UEAANPEAH@Z
?GetNoDataValue@VRTRasterBand@@UEAANPEAH@Z
?GetNoDataValueAsDouble@GDALMDArray@@QEBANPEA_N@Z
?GetNoDataValueAsInt64@GDALMDArray@@QEBA_JPEA_N@Z
?GetNoDataValueAsInt64@GDALPamRasterBand@@UEAA_JPEAH@Z
?GetNoDataValueAsInt64@GDALRasterBand@@UEAA_JPEAH@Z
?GetNoDataValueAsInt64@VRTRasterBand@@UEAA_JPEAH@Z
?GetNoDataValueAsUInt64@GDALMDArray@@QEBA_KPEA_N@Z
?GetNoDataValueAsUInt64@GDALPamRasterBand@@UEAA_KPEAH@Z
?GetNoDataValueAsUInt64@GDALRasterBand@@UEAA_KPEAH@Z
?GetNoDataValueAsUInt64@VRTRasterBand@@UEAA_KPEAH@Z
?GetNode@OGR_SRSNode@@QEAAPEAV1@PEBD@Z
?GetNode@OGR_SRSNode@@QEBAPEBV1@PEBD@Z
?GetNormInfo@OGRSpatialReference@@AEBAXXZ
?GetNormProjParm@OGRSpatialReference@@QEBANPEBDNPEAH@Z
?GetNumericDataType@GDALExtendedDataType@@QEBA?AW4GDALDataType@@XZ
?GetOBProperties@GMLFeature@@QEAAPEAPEADXZ
?GetOBProperty@GMLFeature@@QEAAPEBDPEBD@Z
?GetOGCURN@OGRSpatialReference@@QEBAPEADXZ
?GetObj@CPLJSONObject@@QEBA?AV1@AEBV?$basic_string@DU?$char_traits@D@std@@V?$allocator@D@2@@std@@@Z
?GetObjectByPath@CPLJSONObject@@IEBA?AV1@AEBV?$basic_string@DU?$char_traits@D@std@@V?$allocator@D@2@@std@@AEAV23@@Z
?GetOffset@GDALEDTComponent@@QEBA_KXZ
?GetOffset@GDALMDArray@@UEBANPEA_NPEAW4GDALDataType@@@Z
?GetOffset@GDALPamRasterBand@@UEAANPEAH@Z
?GetOffset@GDALProxyRasterBand@@UEAANPEAH@Z
?GetOffset@GDALRasterBand@@UEAANPEAH@Z
?GetOffset@VRTRasterBand@@UEAANPEAH@Z
?GetOpenDS@OGRSFDriverRegistrar@@QEAAPEAVOGRDataSource@@H@Z
?GetOpenDSCount@OGRSFDriverRegistrar@@QEAAHXZ
?GetOpenDatasets@GDALDataset@@SAPEAPEAV1@PEAH@Z
?GetOpenOptions@GDALDataset@@QEAAPEAPEADXZ
?GetOperator@swq_op_registrar@@SAPEBUswq_operation@@PEBD@Z
?GetOperator@swq_op_registrar@@SAPEBUswq_operation@@W4swq_op@@@Z
?GetOppositVertex@GNMGraph@@MEBA_J_J0@Z
?GetOptionFlags@S57Reader@@QEAAHXZ
?GetOptions@GDALWarpOperation@@QEAAPEBUGDALWarpOptions@@XZ
?GetOptions@VSIFilesystemHandler@@UEAAPEBDXZ
?GetOutEdges@GNMGraph@@MEBAPEBV?$vector@_JV?$allocator@_J@std@@@std@@_J@Z
?GetOutputDriverForRaster@@YA?AVCPLString@@PEBD@Z
?GetOutputDriversFor@@YA?AV?$vector@VCPLString@@V?$allocator@VCPLString@@@std@@@std@@PEBDH@Z
?GetOverview@GDALDefaultOverviews@@QEAAPEAVGDALRasterBand@@HH@Z
?GetOverview@GDALProxyPoolRasterBand@@UEAAPEAVGDALRasterBand@@H@Z
?GetOverview@GDALProxyRasterBand@@UEAAPEAVGDALRasterBand@@H@Z
?GetOverview@GDALRasterBand@@UEAAPEAV1@H@Z
?GetOverview@MEMRasterBand@@UEAAPEAVGDALRasterBand@@H@Z
?GetOverview@VRTRasterBand@@UEAAPEAVGDALRasterBand@@H@Z
?GetOverview@VRTWarpedRasterBand@@UEAAPEAVGDALRasterBand@@H@Z
?GetOverviewCount@GDALDefaultOverviews@@QEAAHH@Z
?GetOverviewCount@GDALProxyRasterBand@@UEAAHXZ
?GetOverviewCount@GDALRasterBand@@UEAAHXZ
?GetOverviewCount@MEMRasterBand@@UEAAHXZ
?GetOverviewCount@VRTRasterBand@@UEAAHXZ
?GetOverviewCount@VRTWarpedRasterBand@@UEAAHXZ
?GetOwnsFP@RawRasterBand@@QEBAHXZ
?GetPAM@GDALPamMDArray@@QEBAAEBV?$shared_ptr@VGDALPamMultiDim@@@std@@XZ
?GetPAMGeorefSrcIndex@GDALGeorefPamDataset@@IEBAHXZ
?GetPaletteInterpretation@GDALColorTable@@QEBA?AW4GDALPaletteInterp@@XZ
?GetPamFlags@GDALPamDataset@@QEAAHXZ
?GetPamInfo@GDALPamDataset@@QEAAPEAVGDALDatasetPamInfo@@XZ
?GetPamInfo@GDALPamRasterBand@@QEAAPEAUGDALRasterBandPamInfo@@XZ
?GetParamDbl@OGRStyleBrush@@QEAANW4ogr_style_tool_param_brush_id@@AEAH@Z
?GetParamDbl@OGRStyleLabel@@QEAANW4ogr_style_tool_param_label_id@@AEAH@Z
?GetParamDbl@OGRStylePen@@QEAANW4ogr_style_tool_param_pen_id@@AEAH@Z
?GetParamDbl@OGRStyleSymbol@@QEAANW4ogr_style_tool_param_symbol_id@@AEAH@Z
?GetParamDbl@OGRStyleTool@@QEAANAEBUogr_style_param@@AEAUogr_style_value@@AEAH@Z
?GetParamNum@OGRStyleBrush@@QEAAHW4ogr_style_tool_param_brush_id@@AEAH@Z
?GetParamNum@OGRStyleLabel@@QEAAHW4ogr_style_tool_param_label_id@@AEAH@Z
?GetParamNum@OGRStylePen@@QEAAHW4ogr_style_tool_param_pen_id@@AEAH@Z
?GetParamNum@OGRStyleSymbol@@QEAAHW4ogr_style_tool_param_symbol_id@@AEAH@Z
?GetParamNum@OGRStyleTool@@QEAAHAEBUogr_style_param@@AEAUogr_style_value@@AEAH@Z
?GetParamStr@OGRStyleBrush@@QEAAPEBDW4ogr_style_tool_param_brush_id@@AEAH@Z
?GetParamStr@OGRStyleLabel@@QEAAPEBDW4ogr_style_tool_param_label_id@@AEAH@Z
?GetParamStr@OGRStylePen@@QEAAPEBDW4ogr_style_tool_param_pen_id@@AEAH@Z
?GetParamStr@OGRStyleSymbol@@QEAAPEBDW4ogr_style_tool_param_symbol_id@@AEAH@Z
?GetParamStr@OGRStyleTool@@QEAAPEBDAEBUogr_style_param@@AEAUogr_style_value@@AEAH@Z
?GetPart@OGRStyleMgr@@QEAAPEAVOGRStyleTool@@HPEBD@Z
?GetPartCount@OGRStyleMgr@@QEAAHPEBD@Z
?GetPath@GNMGenericNetwork@@UEAAPEAVOGRLayer@@_J0W4GNMGraphAlgorithmType@@PEAPEAD@Z
?GetPhysicalFilename@GDALPamDataset@@IEAAPEBDXZ
?GetPixelFunction@VRTDerivedRasterBand@@SAPEAU?$pair@V?$function@$$A6A?AW4CPLErr@@PEAPEAXHPEAXHHW4GDALDataType@@2HHPEBQEBD@Z@std@@VCPLString@@@std@@PEBD@Z
?GetPixelFunctionArguments@VRTDerivedRasterBand@@AEAA?AW4CPLErr@@AEBVCPLString@@AEAV?$vector@U?$pair@VCPLString@@V1@@std@@V?$allocator@U?$pair@VCPLString@@V1@@std@@@2@@std@@@Z
?GetPixelOffset@RawRasterBand@@QEBAHXZ
?GetPixelSpace@GDALAsyncReader@@QEBAHXZ
?GetPool@CPLJobQueue@@QEAAPEAVCPLWorkerThreadPool@@XZ
?GetPrecision@GMLPropertyDefn@@QEBAHXZ
?GetPrecision@OGRFieldDefn@@QEBAHXZ
?GetPrefixes@VSIFileManager@@SAPEAPEADXZ
?GetPrimeMeridian@OGRSpatialReference@@QEBAN$$T@Z
?GetPrimeMeridian@OGRSpatialReference@@QEBANPEAPEAD@Z
?GetPrimeMeridian@OGRSpatialReference@@QEBANPEAPEBD@Z
?GetProcessingChunkSize@GDALAbstractMDArray@@UEBA?AV?$vector@_KV?$allocator@_K@std@@@std@@_K@Z
?GetProjParm@OGRSpatialReference@@QEBANPEBDNPEAH@Z
?GetProjectionRef@GDALDataset@@QEBAPEBDXZ
?GetProperty@GMLFeature@@QEBAPEBUGMLProperty@@H@Z
?GetProperty@GMLFeatureClass@@QEBAPEAVGMLPropertyDefn@@H@Z
?GetProperty@GMLFeatureClass@@QEBAPEAVGMLPropertyDefn@@PEBD@Z
?GetPropertyCount@GMLFeatureClass@@QEBAHXZ
?GetPropertyIndex@GMLFeatureClass@@QEBAHPEBD@Z
?GetPropertyIndexBySrcElement@GMLFeatureClass@@QEBAHPEBDH@Z
?GetPtrForStringOrBinary@OGRArrowArrayHelper@@QEAAPEAEHH_K@Z
?GetRGBFromString@OGRStyleTool@@SAHPEBDAEAH111@Z
?GetRangeStatus@VSIVirtualHandle@@UEAA?AW4VSIRangeStatus@@_K0@Z
?GetRasterBand@GDALDataset@@QEAAPEAVGDALRasterBand@@H@Z
?GetRasterBand@VRTSimpleSource@@QEBAPEAVGDALRasterBand@@XZ
?GetRasterBandNoOpen@VRTSimpleSource@@IEBAPEAVGDALRasterBand@@XZ
?GetRasterCount@GDALDataset@@QEAAHXZ
?GetRasterDataType@GDALRasterBand@@QEAA?AW4GDALDataType@@XZ
?GetRasterSampleOverview@GDALProxyPoolRasterBand@@UEAAPEAVGDALRasterBand@@_K@Z
?GetRasterSampleOverview@GDALProxyRasterBand@@UEAAPEAVGDALRasterBand@@_K@Z
?GetRasterSampleOverview@GDALRasterBand@@UEAAPEAV1@_K@Z
?GetRasterXSize@GDALDataset@@QEAAHXZ
?GetRasterYSize@GDALDataset@@QEAAHXZ
?GetRawBinaryLayout@GDALDataset@@UEAA_NAEAURawBinaryLayout@1@@Z
?GetRawBinaryLayout@RawDataset@@UEAA_NAEAURawBinaryLayout@GDALDataset@@@Z
?GetRawFieldRef@OGRFeature@@QEAAPEATOGRField@@H@Z
?GetRawFieldRef@OGRFeature@@QEBAPEBTOGRField@@H@Z
?GetRawNoDataValue@GDALMDArray@@UEBAPEBXXZ
?GetRawValue@FieldValue@OGRFeature@@QEBAPEBTOGRField@@XZ
?GetReader@GDALMDReaderManager@@UEAAPEAVGDALMDReaderBase@@PEBDPEAPEADI@Z
?GetRefCount@GDALDataset@@QEBAHXZ
?GetRefCount@OGRLayer@@QEBAHXZ
?GetReferenceCount@OGRFeatureDefn@@QEBAHXZ
?GetReferenceCount@OGRSpatialReference@@QEBAHXZ
?GetRegistrar@OGRSFDriverRegistrar@@SAPEAV1@XZ
?GetRelatedTableType@GDALRelationship@@QEBAAEBV?$basic_string@DU?$char_traits@D@std@@V?$allocator@D@2@@std@@XZ
?GetRelationship@GDALDataset@@UEBAPEBVGDALRelationship@@AEBV?$basic_string@DU?$char_traits@D@std@@V?$allocator@D@2@@std@@@Z
?GetRelationship@OGRMutexedDataSource@@UEBAPEBVGDALRelationship@@AEBV?$basic_string@DU?$char_traits@D@std@@V?$allocator@D@2@@std@@@Z
?GetRelationshipNames@GDALDataset@@UEBA?AV?$vector@V?$basic_string@DU?$char_traits@D@std@@V?$allocator@D@2@@std@@V?$allocator@V?$basic_string@DU?$char_traits@D@std@@V?$allocator@D@2@@std@@@2@@std@@PEBQEBD@Z
?GetRelationshipNames@OGRMutexedDataSource@@UEBA?AV?$vector@V?$basic_string@DU?$char_traits@D@std@@V?$allocator@D@2@@std@@V?$allocator@V?$basic_string@DU?$char_traits@D@std@@V?$allocator@D@2@@std@@@2@@std@@PEBQEBD@Z
?GetResampled@GDALMDArray@@QEBA?AV?$shared_ptr@VGDALMDArray@@@std@@AEBV?$vector@V?$shared_ptr@VGDALDimension@@@std@@V?$allocator@V?$shared_ptr@VGDALDimension@@@std@@@2@@3@W4GDALRIOResampleAlg@@PEBVOGRSpatialReference@@PEBQEBD@Z
?GetResampling@VRTSimpleSource@@QEBAAEBVCPLString@@XZ
?GetRightMappingTableFields@GDALRelationship@@QEBAAEBV?$vector@V?$basic_string@DU?$char_traits@D@std@@V?$allocator@D@2@@std@@V?$allocator@V?$basic_string@DU?$char_traits@D@std@@V?$allocator@D@2@@std@@@2@@std@@XZ
?GetRightTableFields@GDALRelationship@@QEBAAEBV?$vector@V?$basic_string@DU?$char_traits@D@std@@V?$allocator@D@2@@std@@V?$allocator@V?$basic_string@DU?$char_traits@D@std@@V?$allocator@D@2@@std@@@2@@std@@XZ
?GetRightTableName@GDALRelationship@@QEBAAEBV?$basic_string@DU?$char_traits@D@std@@V?$allocator@D@2@@std@@XZ
?GetRoot@CPLJSONDocument@@QEAA?AVCPLJSONObject@@XZ
?GetRoot@CPLJSONDocument@@QEBA?BVCPLJSONObject@@XZ
?GetRoot@OGRSpatialReference@@QEAAPEAVOGR_SRSNode@@XZ
?GetRoot@OGRSpatialReference@@QEBAPEBVOGR_SRSNode@@XZ
?GetRootGroup@GDALDataset@@UEBA?AV?$shared_ptr@VGDALGroup@@@std@@XZ
?GetRootGroup@MEMDataset@@UEBA?AV?$shared_ptr@VGDALGroup@@@std@@XZ
?GetRootGroup@OGRMutexedDataSource@@UEBA?AV?$shared_ptr@VGDALGroup@@@std@@XZ
?GetRootGroup@VRTDataset@@UEBA?AV?$shared_ptr@VGDALGroup@@@std@@XZ
?GetRowCount@GDALDefaultRasterAttributeTable@@UEBAHXZ
?GetRowOfValue@GDALDefaultRasterAttributeTable@@UEBAHH@Z
?GetRowOfValue@GDALDefaultRasterAttributeTable@@UEBAHN@Z
?GetRowOfValue@GDALRasterAttributeTable@@UEBAHH@Z
?GetRowOfValue@GDALRasterAttributeTable@@UEBAHN@Z
?GetRules@GNMGenericNetwork@@UEBAPEAPEADXZ
?GetSRSName@GMLFeatureClass@@QEAAPEBDXZ
?GetSRSName@GMLGeometryPropertyDefn@@QEBAAEBV?$basic_string@DU?$char_traits@D@std@@V?$allocator@D@2@@std@@XZ
?GetSWQExpr@OGRFeatureQuery@@QEAAPEAXXZ
?GetScale@GDALMDArray@@UEBANPEA_NPEAW4GDALDataType@@@Z
?GetScale@GDALPamRasterBand@@UEAANPEAH@Z
?GetScale@GDALProxyRasterBand@@UEAANPEAH@Z
?GetScale@GDALRasterBand@@UEAANPEAH@Z
?GetScale@VRTRasterBand@@UEAANPEAH@Z
?GetSearchPaths@GDALDriverManager@@CAPEAPEADPEBD@Z
?GetSemiMajor@OGRSpatialReference@@QEBANPEAH@Z
?GetSemiMinor@OGRSpatialReference@@QEBANPEAH@Z
?GetSerializedString@CPLJSonStreamingParser@@SA?AV?$basic_string@DU?$char_traits@D@std@@V?$allocator@D@2@@std@@PEBD@Z
?GetShared@GDALDataset@@QEBAHXZ
?GetSiblingFiles@GDALDefaultOverviews@@QEAAPEAPEADXZ
?GetSiblingFiles@GDALOpenInfo@@QEAAPEAPEADXZ
?GetSignedURL@VSIFilesystemHandler@@UEAAPEADPEBDPEBQEBD@Z
?GetSingleSimpleSource@VRTDataset@@QEAAPEAVGDALDataset@@XZ
?GetSize@GDALDimension@@QEBA_KXZ
?GetSize@GDALExtendedDataType@@QEBA_KXZ
?GetSize@OGRLayerPool@@QEBAHXZ
?GetSourceLayerName@GNMRule@@UEBA?AVCPLString@@XZ
?GetSpatialFilter@OGREditableLayer@@UEAAPEAVOGRGeometry@@XZ
?GetSpatialFilter@OGRLayer@@UEAAPEAVOGRGeometry@@XZ
?GetSpatialFilter@OGRLayerDecorator@@UEAAPEAVOGRGeometry@@XZ
?GetSpatialFilter@OGRMutexedLayer@@UEAAPEAVOGRGeometry@@XZ
?GetSpatialRef@GDALDataset@@UEBAPEBVOGRSpatialReference@@XZ
?GetSpatialRef@GDALGeorefPamDataset@@UEBAPEBVOGRSpatialReference@@XZ
?GetSpatialRef@GDALMDArray@@UEBA?AV?$shared_ptr@VOGRSpatialReference@@@std@@XZ
?GetSpatialRef@GDALPamDataset@@UEBAPEBVOGRSpatialReference@@XZ
?GetSpatialRef@GDALPamMDArray@@UEBA?AV?$shared_ptr@VOGRSpatialReference@@@std@@XZ
?GetSpatialRef@GDALPamMultiDim@@QEAA?AV?$shared_ptr@VOGRSpatialReference@@@std@@AEBV?$basic_string@DU?$char_traits@D@std@@V?$allocator@D@2@@3@@Z
?GetSpatialRef@GDALProxyDataset@@UEBAPEBVOGRSpatialReference@@XZ
?GetSpatialRef@GDALProxyPoolDataset@@UEBAPEBVOGRSpatialReference@@XZ
?GetSpatialRef@GNMNetwork@@UEBAPEBVOGRSpatialReference@@XZ
?GetSpatialRef@MEMDataset@@UEBAPEBVOGRSpatialReference@@XZ
?GetSpatialRef@OGREditableLayer@@UEAAPEAVOGRSpatialReference@@XZ
?GetSpatialRef@OGRGeomFieldDefn@@UEBAPEAVOGRSpatialReference@@XZ
?GetSpatialRef@OGRLayer@@UEAAPEAVOGRSpatialReference@@XZ
?GetSpatialRef@OGRLayerDecorator@@UEAAPEAVOGRSpatialReference@@XZ
?GetSpatialRef@OGRMutexedLayer@@UEAAPEAVOGRSpatialReference@@XZ
?GetSpatialRef@OGRUnionLayer@@UEAAPEAVOGRSpatialReference@@XZ
?GetSpatialRef@VRTDataset@@UEBAPEBVOGRSpatialReference@@XZ
?GetSpecificId@OGRStyleTool@@SAHPEBD0@Z
?GetSplitPolicy@OGRFieldDomain@@QEBA?AW4OGRFieldDomainSplitPolicy@@XZ
?GetSquaredEccentricity@OGRSpatialReference@@QEBANXZ
?GetSrcDstWindow@VRTSimpleSource@@QEAAHNNNNHHPEAN000PEAH1111111AEA_N@Z
?GetSrcElement@GMLGeometryPropertyDefn@@QEBAPEBDXZ
?GetSrcElement@GMLPropertyDefn@@QEBAPEBDXZ
?GetSrcElementLen@GMLPropertyDefn@@QEBA_KXZ
?GetSrcGeomFieldIndex@OGREditableLayer@@IEAAHH@Z
?GetStatistics@GDALMDArray@@UEAA?AW4CPLErr@@_N0PEAN111PEA_KP6AHNPEBDPEAX@Z4@Z
?GetStatistics@GDALPamMDArray@@UEAA?AW4CPLErr@@_N0PEAN111PEA_KP6AHNPEBDPEAX@Z4@Z
?GetStatistics@GDALPamMultiDim@@QEAA?AW4CPLErr@@AEBV?$basic_string@DU?$char_traits@D@std@@V?$allocator@D@2@@std@@_NPEAN222PEA_K@Z
?GetStatistics@GDALProxyRasterBand@@UEAA?AW4CPLErr@@HHPEAN000@Z
?GetStatistics@GDALRasterBand@@UEAA?AW4CPLErr@@HHPEAN000@Z
?GetStreamingFilename@VSIFilesystemHandler@@UEBA?AV?$basic_string@DU?$char_traits@D@std@@V?$allocator@D@2@@std@@AEBV23@@Z
?GetString@CPLJSONObject@@QEBA?AV?$basic_string@DU?$char_traits@D@std@@V?$allocator@D@2@@std@@AEBV23@0@Z
?GetString@CPLJSonStreamingWriter@@QEBAAEBV?$basic_string@DU?$char_traits@D@std@@V?$allocator@D@2@@std@@XZ
?GetString@FieldValue@OGRFeature@@QEBAPEBDXZ
?GetStructuralInfo@GDALGroup@@UEBAPEBQEBDXZ
?GetStructuralInfo@GDALMDArray@@UEBAPEBQEBDXZ
?GetStyleByName@OGRStyleMgr@@QEAAPEBDPEBD@Z
?GetStyleName@OGRStyleMgr@@QEAAPEBDPEBD@Z
?GetStyleName@OGRStyleTable@@QEAAPEBDPEBD@Z
?GetStyleString@OGRFeature@@UEBAPEBDXZ
?GetStyleString@OGRStyleBrush@@UEAAPEBDXZ
?GetStyleString@OGRStyleLabel@@UEAAPEBDXZ
?GetStyleString@OGRStyleMgr@@QEAAPEBDPEAVOGRFeature@@@Z
?GetStyleString@OGRStylePen@@UEAAPEBDXZ
?GetStyleString@OGRStyleSymbol@@UEAAPEBDXZ
?GetStyleString@OGRStyleTool@@QEAAPEBDPEBUogr_style_param@@PEAUogr_style_value@@H@Z
?GetStyleTable@GDALDataset@@UEAAPEAVOGRStyleTable@@XZ
?GetStyleTable@OGRFeature@@UEBAPEAVOGRStyleTable@@XZ
?GetStyleTable@OGRLayer@@UEAAPEAVOGRStyleTable@@XZ
?GetStyleTable@OGRLayerDecorator@@UEAAPEAVOGRStyleTable@@XZ
?GetStyleTable@OGRMutexedDataSource@@UEAAPEAVOGRStyleTable@@XZ
?GetStyleTable@OGRMutexedLayer@@UEAAPEAVOGRStyleTable@@XZ
?GetSubType@FieldValue@OGRFeature@@QEBA?AW4OGRFieldSubType@@XZ
?GetSubType@GDALExtendedDataType@@QEBA?AW4GDALExtendedDataTypeSubType@@XZ
?GetSubType@OGRFieldDefn@@QEBA?AW4OGRFieldSubType@@XZ
?GetSubdatasetName@GDALPamDataset@@IEAAPEBDXZ
?GetSuggestedBlockAccessPattern@GDALRasterBand@@UEBAHXZ
?GetSummaryRefCount@GDALDataset@@QEBAHXZ
?GetTOWGS84@OGRSpatialReference@@QEBAHPEANH@Z
?GetTableType@GDALDefaultRasterAttributeTable@@UEBA?AW4GDALRATTableType@@XZ
?GetTargetLayerName@GNMRule@@UEBA?AVCPLString@@XZ
?GetTargetLinearUnits@OGRSpatialReference@@QEBANPEBD$$T@Z
?GetTargetLinearUnits@OGRSpatialReference@@QEBANPEBDPEAPEAD@Z
?GetTargetLinearUnits@OGRSpatialReference@@QEBANPEBDPEAPEBD@Z
?GetThreadCount@CPLWorkerThreadPool@@QEBAHXZ
?GetTotalCopyCost@GDALGroup@@QEBA_KXZ
?GetTotalCopyCost@GDALMDArray@@QEBA_KXZ
?GetTotalElementsCount@GDALAbstractMDArray@@QEBA_KXZ
?GetType@CPLJSONObject@@QEBA?AW4Type@1@XZ
?GetType@FieldValue@OGRFeature@@QEBA?AW4OGRFieldType@@XZ
?GetType@GDALDimension@@QEBAAEBV?$basic_string@DU?$char_traits@D@std@@V?$allocator@D@2@@std@@XZ
?GetType@GDALEDTComponent@@QEBAAEBVGDALExtendedDataType@@XZ
?GetType@GDALJP2Box@@QEAAPEBDXZ
?GetType@GDALRelationship@@QEBA?AW4GDALRelationshipType@@XZ
?GetType@GMLGeometryPropertyDefn@@QEBAHXZ
?GetType@GMLPropertyDefn@@QEBA?AW4GMLPropertyType@@XZ
?GetType@GNMRule@@UEBA?AW4GNMRuleType@@XZ
?GetType@OGRFieldDefn@@QEBA?AW4OGRFieldType@@XZ
?GetType@OGRGeomFieldDefn@@QEBA?AW4OGRwkbGeometryType@@XZ
?GetType@OGRStyleTool@@QEAA?AW4ogr_style_tool_class_id@@XZ
?GetType@VRTComplexSource@@UEAAPEBDXZ
?GetType@VRTSimpleSource@@UEAAPEBDXZ
?GetTypeOfCol@GDALDefaultRasterAttributeTable@@UEBA?AW4GDALRATFieldType@@H@Z
?GetUTMZone@OGRSpatialReference@@QEBAHPEAH@Z
?GetUUID@GDALJP2Box@@QEAAPEBEXZ
?GetUnit@GDALMDArray@@UEBAAEBV?$basic_string@DU?$char_traits@D@std@@V?$allocator@D@2@@std@@XZ
?GetUnit@OGRStyleTool@@QEAA?AW4ogr_style_tool_units_id@@XZ
?GetUnitType@GDALPamRasterBand@@UEAAPEBDXZ
?GetUnitType@GDALProxyPoolRasterBand@@UEAAPEBDXZ
?GetUnitType@GDALProxyRasterBand@@UEAAPEBDXZ
?GetUnitType@GDALRasterBand@@UEAAPEBDXZ
?GetUnitType@VRTRasterBand@@UEAAPEBDXZ
?GetUnscaled@GDALMDArray@@QEBA?AV?$shared_ptr@VGDALMDArray@@@std@@XZ
?GetUsageOfCol@GDALDefaultRasterAttributeTable@@UEBA?AW4GDALRATFieldUsage@@H@Z
?GetUsedFields@OGRFeatureQuery@@QEAAPEAPEADXZ
?GetValue@OGR_SRSNode@@QEBAPEBDXZ
?GetValueAsDouble@GDALDefaultRasterAttributeTable@@UEBANHH@Z
?GetValueAsInt@GDALDefaultRasterAttributeTable@@UEBAHHH@Z
?GetValueAsString@GDALDefaultRasterAttributeTable@@UEBAPEBDHH@Z
?GetVectorLayerNames@GDALGroup@@UEBA?AV?$vector@V?$basic_string@DU?$char_traits@D@std@@V?$allocator@D@2@@std@@V?$allocator@V?$basic_string@DU?$char_traits@D@std@@V?$allocator@D@2@@std@@@2@@std@@PEBQEBD@Z
?GetVersion@GNMGenericNetwork@@UEBAHXZ
?GetVersion@GNMNetwork@@UEBAHXZ
?GetView@GDALMDArray@@AEBA?AV?$shared_ptr@VGDALMDArray@@@std@@AEBV?$vector@_KV?$allocator@_K@std@@@3@@Z
?GetView@GDALMDArray@@QEBA?AV?$shared_ptr@VGDALMDArray@@@std@@AEBV?$basic_string@DU?$char_traits@D@std@@V?$allocator@D@2@@3@@Z
?GetView@GDALMDArray@@UEBA?AV?$shared_ptr@VGDALMDArray@@@std@@AEBV?$basic_string@DU?$char_traits@D@std@@V?$allocator@D@2@@3@_NAEAV?$vector@UViewSpec@GDALMDArray@@V?$allocator@UViewSpec@GDALMDArray@@@std@@@3@@Z
?GetVirtualMemAuto@GDALProxyRasterBand@@UEAAPEAUCPLVirtualMem@@W4GDALRWFlag@@PEAHPEA_JPEAPEAD@Z
?GetVirtualMemAuto@GDALRasterBand@@UEAAPEAUCPLVirtualMem@@W4GDALRWFlag@@PEAHPEA_JPEAPEAD@Z
?GetVirtualMemAuto@RawRasterBand@@UEAAPEAUCPLVirtualMem@@W4GDALRWFlag@@PEAHPEA_JPEAPEAD@Z
?GetVirtualMemAuto@VRTRawRasterBand@@UEAAPEAUCPLVirtualMem@@W4GDALRWFlag@@PEAHPEA_JPEAPEAD@Z
?GetWGS84SRS@OGRSpatialReference@@SAPEAV1@XZ
?GetWidth@GMLPropertyDefn@@QEBAHXZ
?GetWidth@OGRFieldDefn@@QEBAHXZ
?GetWritableBoxData@GDALJP2Box@@QEBAPEAEXZ
?GetWritableData@GDALJP2Box@@QEBAPEBEXZ
?GetXOff@GDALRasterBlock@@QEBAHXZ
?GetXOffset@GDALAsyncReader@@QEBAHXZ
?GetXSize@GDALAsyncReader@@QEBAHXZ
?GetXSize@GDALRasterBand@@QEAAHXZ
?GetXSize@GDALRasterBlock@@QEBAHXZ
?GetYOff@GDALRasterBlock@@QEBAHXZ
?GetYOffset@GDALAsyncReader@@QEBAHXZ
?GetYSize@GDALAsyncReader@@QEBAHXZ
?GetYSize@GDALRasterBand@@QEAAHXZ
?GetYSize@GDALRasterBlock@@QEBAHXZ
?GuessGeoTransform@GDALMDArray@@QEBA_N_K0_NQEAN@Z
?HFACreateLayer@@YAHPEAUhfainfo@@PEAVHFAEntry@@PEBDHHHHHHHW4EPTType@@PEAPEAD_J5HH@Z
?HasArbitraryOverviews@GDALProxyRasterBand@@UEAAHXZ
?HasArbitraryOverviews@GDALRasterBand@@UEAAHXZ
?HasBeenUpdated@OGRMemLayer@@QEBA_NXZ
?HasExtents@GMLFeatureClass@@QEBA_NXZ
?HasFeatureProperties@GMLFeatureClass@@QEAA_NXZ
?HasOptimizedReadMultiRange@VSIFilesystemHandler@@UEAAHPEBD@Z
?HasPRead@VSIVirtualHandle@@UEBA_NXZ
?HasRequiredFiles@GDALMDReaderPleiades@@UEBA_NXZ
?HaveMaskFile@GDALDefaultOverviews@@QEAAHPEAPEADPEBD@Z
?HomogenizeDimensionalityWith@OGRGeometry@@IEAAXPEAV1@@Z
?IAdviseRead@GDALMDArray@@MEBA_NPEB_K0PEBQEBD@Z
?IBuildOverviews@GDALDataset@@MEAA?AW4CPLErr@@PEBDHPEBHH1P6AHN0PEAX@Z2PEBQEBD@Z
?IBuildOverviews@GDALPamDataset@@UEAA?AW4CPLErr@@PEBDHPEBHH1P6AHN0PEAX@Z2PEBQEBD@Z
?IBuildOverviews@GDALProxyDataset@@MEAA?AW4CPLErr@@PEBDHPEBHH1P6AHN0PEAX@Z2PEBQEBD@Z
?IBuildOverviews@MEMDataset@@UEAA?AW4CPLErr@@PEBDHPEBHH1P6AHN0PEAX@Z2PEBQEBD@Z
?IBuildOverviews@VRTDataset@@UEAA?AW4CPLErr@@PEBDHPEBHH1P6AHN0PEAX@Z2PEBQEBD@Z
?IBuildOverviews@VRTWarpedDataset@@UEAA?AW4CPLErr@@PEBDHPEBHH1P6AHN0PEAX@Z2PEBQEBD@Z
?ICreateFeature@OGREditableLayer@@UEAAHPEAVOGRFeature@@@Z
?ICreateFeature@OGRLayer@@MEAAHPEAVOGRFeature@@@Z
?ICreateFeature@OGRLayerDecorator@@UEAAHPEAVOGRFeature@@@Z
?ICreateFeature@OGRMemLayer@@UEAAHPEAVOGRFeature@@@Z
?ICreateFeature@OGRMutexedLayer@@UEAAHPEAVOGRFeature@@@Z
?ICreateFeature@OGRUnionLayer@@UEAAHPEAVOGRFeature@@@Z
?ICreateLayer@GDALDataset@@MEAAPEAVOGRLayer@@PEBDPEAVOGRSpatialReference@@W4OGRwkbGeometryType@@PEAPEAD@Z
?ICreateLayer@OGRMutexedDataSource@@UEAAPEAVOGRLayer@@PEBDPEAVOGRSpatialReference@@W4OGRwkbGeometryType@@PEAPEAD@Z
?IGetDataCoverageStatus@GDALRasterBand@@MEAAHHHHHHPEAN@Z
?IGetDataCoverageStatus@VRTDerivedRasterBand@@UEAAHHHHHHPEAN@Z
?IGetDataCoverageStatus@VRTSourcedRasterBand@@UEAAHHHHHHPEAN@Z
?IRasterIO@GDALDataset@@MEAA?AW4CPLErr@@W4GDALRWFlag@@HHHHPEAXHHW4GDALDataType@@HPEAH_J44PEAUGDALRasterIOExtraArg@@@Z
?IRasterIO@GDALNoDataMaskBand@@MEAA?AW4CPLErr@@W4GDALRWFlag@@HHHHPEAXHHW4GDALDataType@@_J3PEAUGDALRasterIOExtraArg@@@Z
?IRasterIO@GDALProxyDataset@@MEAA?AW4CPLErr@@W4GDALRWFlag@@HHHHPEAXHHW4GDALDataType@@HPEAH_J44PEAUGDALRasterIOExtraArg@@@Z
?IRasterIO@GDALProxyRasterBand@@MEAA?AW4CPLErr@@W4GDALRWFlag@@HHHHPEAXHHW4GDALDataType@@_J3PEAUGDALRasterIOExtraArg@@@Z
?IRasterIO@GDALRasterBand@@MEAA?AW4CPLErr@@W4GDALRWFlag@@HHHHPEAXHHW4GDALDataType@@_J3PEAUGDALRasterIOExtraArg@@@Z
?IRasterIO@MEMDataset@@UEAA?AW4CPLErr@@W4GDALRWFlag@@HHHHPEAXHHW4GDALDataType@@HPEAH_J44PEAUGDALRasterIOExtraArg@@@Z
?IRasterIO@MEMRasterBand@@UEAA?AW4CPLErr@@W4GDALRWFlag@@HHHHPEAXHHW4GDALDataType@@_J3PEAUGDALRasterIOExtraArg@@@Z
?IRasterIO@RawDataset@@MEAA?AW4CPLErr@@W4GDALRWFlag@@HHHHPEAXHHW4GDALDataType@@HPEAH_J44PEAUGDALRasterIOExtraArg@@@Z
?IRasterIO@RawRasterBand@@MEAA?AW4CPLErr@@W4GDALRWFlag@@HHHHPEAXHHW4GDALDataType@@_J3PEAUGDALRasterIOExtraArg@@@Z
?IRasterIO@VRTDataset@@UEAA?AW4CPLErr@@W4GDALRWFlag@@HHHHPEAXHHW4GDALDataType@@HPEAH_J44PEAUGDALRasterIOExtraArg@@@Z
?IRasterIO@VRTDerivedRasterBand@@UEAA?AW4CPLErr@@W4GDALRWFlag@@HHHHPEAXHHW4GDALDataType@@_J3PEAUGDALRasterIOExtraArg@@@Z
?IRasterIO@VRTRawRasterBand@@UEAA?AW4CPLErr@@W4GDALRWFlag@@HHHHPEAXHHW4GDALDataType@@_J3PEAUGDALRasterIOExtraArg@@@Z
?IRasterIO@VRTSourcedRasterBand@@UEAA?AW4CPLErr@@W4GDALRWFlag@@HHHHPEAXHHW4GDALDataType@@_J3PEAUGDALRasterIOExtraArg@@@Z
?IRead@GDALAttributeNumeric@@MEBA_NPEB_K0PEB_J1AEBVGDALExtendedDataType@@PEAX@Z
?IRead@GDALAttributeString@@MEBA_NPEB_K0PEB_J1AEBVGDALExtendedDataType@@PEAX@Z
?IRead@GDALMDArrayRegularlySpaced@@MEBA_NPEB_K0PEB_J1AEBVGDALExtendedDataType@@PEAX@Z
?IRead@MEMAbstractMDArray@@MEBA_NPEB_K0PEB_J1AEBVGDALExtendedDataType@@PEAX@Z
?IReadBlock@GDALAllValidMaskBand@@MEAA?AW4CPLErr@@HHPEAX@Z
?IReadBlock@GDALNoDataMaskBand@@MEAA?AW4CPLErr@@HHPEAX@Z
?IReadBlock@GDALNoDataValuesMaskBand@@MEAA?AW4CPLErr@@HHPEAX@Z
?IReadBlock@GDALProxyRasterBand@@MEAA?AW4CPLErr@@HHPEAX@Z
?IReadBlock@MEMRasterBand@@UEAA?AW4CPLErr@@HHPEAX@Z
?IReadBlock@RawRasterBand@@UEAA?AW4CPLErr@@HHPEAX@Z
?IReadBlock@VRTRawRasterBand@@UEAA?AW4CPLErr@@HHPEAX@Z
?IReadBlock@VRTSourcedRasterBand@@UEAA?AW4CPLErr@@HHPEAX@Z
?IReadBlock@VRTWarpedRasterBand@@UEAA?AW4CPLErr@@HHPEAX@Z
?ISetFeature@OGREditableLayer@@UEAAHPEAVOGRFeature@@@Z
?ISetFeature@OGRLayer@@MEAAHPEAVOGRFeature@@@Z
?ISetFeature@OGRLayerDecorator@@UEAAHPEAVOGRFeature@@@Z
?ISetFeature@OGRMemLayer@@UEAAHPEAVOGRFeature@@@Z
?ISetFeature@OGRMutexedLayer@@UEAAHPEAVOGRFeature@@@Z
?ISetFeature@OGRUnionLayer@@UEAAHPEAVOGRFeature@@@Z
?IUpsertFeature@OGREditableLayer@@UEAAHPEAVOGRFeature@@@Z
?IUpsertFeature@OGRLayer@@MEAAHPEAVOGRFeature@@@Z
?IUpsertFeature@OGRLayerDecorator@@UEAAHPEAVOGRFeature@@@Z
?IUpsertFeature@OGRMemLayer@@UEAAHPEAVOGRFeature@@@Z
?IUpsertFeature@OGRMutexedLayer@@UEAAHPEAVOGRFeature@@@Z
?IUpsertFeature@OGRUnionLayer@@UEAAHPEAVOGRFeature@@@Z
?IWrite@GDALAbstractMDArray@@MEAA_NPEB_K0PEB_J1AEBVGDALExtendedDataType@@PEBX@Z
?IWrite@MEMAbstractMDArray@@MEAA_NPEB_K0PEB_J1AEBVGDALExtendedDataType@@PEBX@Z
?IWriteBlock@GDALProxyRasterBand@@MEAA?AW4CPLErr@@HHPEAX@Z
?IWriteBlock@GDALRasterBand@@MEAA?AW4CPLErr@@HHPEAX@Z
?IWriteBlock@MEMRasterBand@@UEAA?AW4CPLErr@@HHPEAX@Z
?IWriteBlock@RawRasterBand@@UEAA?AW4CPLErr@@HHPEAX@Z
?IWriteBlock@VRTRawRasterBand@@UEAA?AW4CPLErr@@HHPEAX@Z
?IWriteBlock@VRTWarpedRasterBand@@UEAA?AW4CPLErr@@HHPEAX@Z
?Id@OGRStyleBrush@@QEAAPEBDAEAH@Z
?Id@OGRStylePen@@QEAAPEBDAEAH@Z
?Id@OGRStyleSymbol@@QEAAPEBDAEAH@Z
?Identify@VRTDataset@@SAHPEAVGDALOpenInfo@@@Z
?Identity@OGRLayer@@QEAAHPEAV1@0PEAPEADP6AHNPEBDPEAX@Z3@Z
?ImportFromESRIStatePlaneWKT@OGRSpatialReference@@QEAAHHPEBD0H0@Z
?ImportFromESRIWisconsinWKT@OGRSpatialReference@@QEAAHPEBDNN00@Z
?IncDirtyBlocks@GDALRasterBand@@AEAAXH@Z
?IncIndent@CPLJSonStreamingWriter@@AEAAXXZ
?Ingest@CPLKeywordParser@@QEAAHPEAU_iobuf@@@Z
?Ingest@NASAKeywordHandler@@QEAAHPEAU_iobuf@@H@Z
?Ingest@S57Reader@@QEAA_NXZ
?Init@MEMAbstractMDArray@@QEAA_NPEAEAEBV?$vector@_JV?$allocator@_J@std@@@std@@@Z
?InitBand@VRTDataset@@AEAAPEAVVRTRasterBand@@PEBDH_N@Z
?InitBlockInfo@GDALRasterBand@@IEAAHXZ
?InitFromFeature@OGRStyleMgr@@QEAAPEBDPEAVOGRFeature@@@Z
?InitRWLock@GDALDataset@@IEAAXXZ
?InitRWLock@GDALRasterBand@@IEAAXXZ
?InitStyleString@OGRStyleMgr@@QEAAHPEBD@Z
?Initialize@GDALDefaultOverviews@@QEAAXPEAVGDALDataset@@PEBDPEAPEADH@Z
?Initialize@GDALWarpOperation@@QEAA?AW4CPLErr@@PEBUGDALWarpOptions@@@Z
?Initialize@OGRGeomFieldDefn@@IEAAXPEBDW4OGRwkbGeometryType@@@Z
?Initialize@RawRasterBand@@IEAAXXZ
?Initialize@VRTRasterBand@@IEAAXHH@Z
?Initialize@VRTWarpedDataset@@QEAA?AW4CPLErr@@PEAX@Z
?InitializeFromColorTable@GDALRasterAttributeTable@@UEAA?AW4CPLErr@@PEBVGDALColorTable@@@Z
?InitializeFromXML@GMLFeatureClass@@QEAA_NPEAUCPLXMLNode@@@Z
?InitializeIndexSupport@OGRLayer@@QEAAHPEBD@Z
?InitializePython@VRTDerivedRasterBand@@AEAA_NXZ
?InsertChild@OGR_SRSNode@@QEAAXPEAV1@H@Z
?InsertString@CPLStringList@@QEAAAEAV1@HPEBD@Z
?InsertStringDirectly@CPLStringList@@QEAAAEAV1@HPEAD@Z
?InstallFilter@OGRLayer@@IEAAHPEAVOGRGeometry@@@Z
?InstallHandler@VSIFileManager@@SAXAEBV?$basic_string@DU?$char_traits@D@std@@V?$allocator@D@2@@std@@PEAVVSIFilesystemHandler@@@Z
?Internalize@GDALRasterBlock@@QEAA?AW4CPLErr@@XZ
?Intersect@OGREnvelope3D@@QEAAXAEBV1@@Z
?Intersect@OGREnvelope@@QEAAXAEBV1@@Z
?Intersect@OGRGeometry@@QEBAHPEAV1@@Z
?Intersection@OGRGeometry@@UEBAPEAV1@PEBV1@@Z
?Intersection@OGRLayer@@QEAAHPEAV1@0PEAPEADP6AHNPEBDPEAX@Z3@Z
?Intersects@OGRCurvePolygon@@UEBAHPEBVOGRGeometry@@@Z
?Intersects@OGREnvelope3D@@QEBAHAEBV1@@Z
?Intersects@OGREnvelope@@QEBAHAEBV1@@Z
?Intersects@OGRGeometry@@UEBAHPEBV1@@Z
?Intersects@OGRPoint@@UEBAHPEBVOGRGeometry@@@Z
?IntersectsPoint@OGRCircularString@@MEBAHPEBVOGRPoint@@@Z
?IntersectsPoint@OGRCurve@@MEBAHPEBVOGRPoint@@@Z
?IntersectsPoint@OGRCurvePolygon@@AEBAHPEBVOGRPoint@@@Z
?InvalidateMaskBand@GDALRasterBand@@IEAAXXZ
?Is3D@OGRGeometry@@QEBAHXZ
?IsAcceptAny@GNMRule@@UEBA_NXZ
?IsAngularParameter@OGRSpatialReference@@SAHPEBD@Z
?IsBIP@RawRasterBand@@AEBA_NXZ
?IsCacheable@GDALMDArray@@MEBA_NXZ
?IsCaseSensitive@VSIFilesystemHandler@@UEAAHPEBD@Z
?IsCompound@OGRSpatialReference@@QEBAHXZ
?IsConvex@OGRCurve@@UEBAHXZ
?IsDefaultDriverSpecific@OGRFieldDefn@@QEBAHXZ
?IsDerivedGeographic@OGRSpatialReference@@QEBAHXZ
?IsDynamic@OGRSpatialReference@@QEBA_NXZ
?IsEmpty@OGRCompoundCurve@@UEBAHXZ
?IsEmpty@OGRCurveCollection@@QEBAHXZ
?IsEmpty@OGRCurvePolygon@@UEBAHXZ
?IsEmpty@OGRGeometryCollection@@UEBAHXZ
?IsEmpty@OGRPoint@@UEBAHXZ
?IsEmpty@OGRPolyhedralSurface@@UEBAHXZ
?IsEmpty@OGRSimpleCurve@@UEBAHXZ
?IsEmpty@OGRSpatialReference@@QEBA_NXZ
?IsExist@OGRStyleTable@@QEAAHPEBD@Z
?IsFieldNull@OGRFeature@@QEBA_NH@Z
?IsFieldNullUnsafe@OGRFeature@@QEBA_NH@Z
?IsFieldSet@OGRFeature@@QEBAHH@Z
?IsFieldSetAndNotNull@OGRFeature@@QEBA_NH@Z
?IsFieldSetAndNotNullUnsafe@OGRFeature@@QEBA_NH@Z
?IsFieldSetUnsafe@OGRFeature@@QEBA_NH@Z
?IsFullCircle@OGRCircularString@@AEBAHAEAN00@Z
?IsGenericSQLDialect@GDALDataset@@SAHPEBD@Z
?IsGeocentric@OGRSpatialReference@@QEBAHXZ
?IsGeographic@OGRSpatialReference@@QEBAHXZ
?IsGeometryIgnored@OGRFeatureDefn@@UEBAHXZ
?IsIdentity@GDALColorTable@@QEBA_NXZ
?IsIgnored@OGRFieldDefn@@QEBAHXZ
?IsIgnored@OGRGeomFieldDefn@@QEBAHXZ
?IsInit@OGREnvelope3D@@QEBAHXZ
?IsInit@OGREnvelope@@QEBAHXZ
?IsInitialized@GDALDefaultOverviews@@QEAAHXZ
?IsLayerPrivate@GDALDataset@@UEBA_NH@Z
?IsLayerPrivate@OGRMutexedDataSource@@UEBA_NH@Z
?IsLeafNode@OGR_SRSNode@@QEBAHXZ
?IsLinearParameter@OGRSpatialReference@@SAHPEBD@Z
?IsLocal@OGRSpatialReference@@QEBAHXZ
?IsLocal@VSIFilesystemHandler@@UEAA_NPEBD@Z
?IsLongitudeParameter@OGRSpatialReference@@SAHPEBD@Z
?IsMaskBand@GDALAllValidMaskBand@@UEBA_NXZ
?IsMaskBand@GDALNoDataMaskBand@@UEBA_NXZ
?IsMaskBand@GDALNoDataValuesMaskBand@@UEBA_NXZ
?IsMaskBand@GDALProxyRasterBand@@UEBA_NXZ
?IsMaskBand@GDALRasterBand@@UEBA_NXZ
?IsMaskBand@MEMRasterBand@@UEBA_NXZ
?IsMaskBand@VRTRasterBand@@UEBA_NXZ
?IsMeasured@OGRGeometry@@QEBAHXZ
?IsModified@MEMAbstractMDArray@@QEBA_NXZ
?IsMosaicOfNonOverlappingSimpleSourcesOfFullRasterNoResAndTypeChange@VRTSourcedRasterBand@@AEBA_N_N@Z
?IsNoDataInRange@GDALNoDataMaskBand@@SA_NNW4GDALDataType@@@Z
?IsNoDataValueInDataTypeRange@VRTRasterBand@@IEBA_NXZ
?IsNull@FieldValue@OGRFeature@@QEBA_NXZ
?IsNullable@GMLGeometryPropertyDefn@@QEBA_NXZ
?IsNullable@GMLPropertyDefn@@QEBA_NXZ
?IsNullable@OGRFieldDefn@@QEBAHXZ
?IsNullable@OGRGeomFieldDefn@@QEBAHXZ
?IsPamFilenameAPotentialSiblingFile@GDALPamDataset@@AEAAHXZ
?IsPansharpenRasterBand@VRTRasterBand@@UEAAHXZ
?IsPointOnSurface@OGRPolygon@@QEBAHPEBVOGRPoint@@@Z
?IsProjected@OGRSpatialReference@@QEBAHXZ
?IsRegularlySpaced@GDALMDArray@@QEBA_NAEAN0@Z
?IsRing@OGRGeometry@@UEBAHXZ
?IsSFCGALCompatible@OGRGeometry@@IEBAHXZ
?IsSame@GDALColorTable@@QEBAHPEBV1@@Z
?IsSame@OGRFeatureDefn@@UEBAHPEBV1@@Z
?IsSame@OGRFieldDefn@@QEBAHPEBV1@@Z
?IsSame@OGRGeomFieldDefn@@QEBAHPEBV1@@Z
?IsSame@OGRSpatialReference@@QEBAHPEBV1@@Z
?IsSame@OGRSpatialReference@@QEBAHPEBV1@PEBQEBD@Z
?IsSameExceptBandNumber@VRTSimpleSource@@QEAAHPEAV1@@Z
?IsSameGeogCS@OGRSpatialReference@@QEBAHPEBV1@@Z
?IsSameGeogCS@OGRSpatialReference@@QEBAHPEBV1@PEBQEBD@Z
?IsSameVertCS@OGRSpatialReference@@QEBAHPEBV1@@Z
?IsSchemaLocked@GMLFeatureClass@@QEBA_NXZ
?IsSequentialLayers@IGMLReader@@UEBA_NXZ
?IsSignificantNumberOfLinesLoaded@RawRasterBand@@IEAAHHH@Z
?IsSimple@OGRGeometry@@UEBAHXZ
?IsSimpleSource@VRTSimpleSource@@UEAAHXZ
?IsSimpleSource@VRTSource@@UEAAHXZ
?IsSimpleType@GMLPropertyDefn@@SA_NW4GMLPropertyType@@@Z
?IsSorted@CPLStringList@@QEBAHXZ
?IsSourcedRasterBand@VRTRasterBand@@UEAAHXZ
?IsSourcedRasterBand@VRTSourcedRasterBand@@UEAAHXZ
?IsStyleIgnored@OGRFeatureDefn@@UEBA_NXZ
?IsStyleModified@OGRStyleTool@@QEAAHXZ
?IsStyleParsed@OGRStyleTool@@QEAAHXZ
?IsSuperBox@GDALJP2Box@@QEAAHXZ
?IsTransposedRequest@GDALMDArray@@IEBA_NPEB_KPEB_J@Z
?IsUUID_MSI@GDALJP2Metadata@@SAHPEBE@Z
?IsUUID_XMP@GDALJP2Metadata@@SAHPEBE@Z
?IsUnique@GMLPropertyDefn@@QEBA_NXZ
?IsUnique@OGRFieldDefn@@QEBAHXZ
?IsUnset@FieldValue@OGRFeature@@QEBA_NXZ
?IsUpdatable@OGRMemLayer@@QEBA_NXZ
?IsValid@CPLJSONObject@@QEBA_NXZ
?IsValid@GNMRule@@UEBA_NXZ
?IsValid@OGRCircularString@@UEBAHXZ
?IsValid@OGRGeometry@@UEBAHXZ
?IsValidFast@OGRCircularString@@AEBAHXZ
?IsVertical@OGRSpatialReference@@QEBAHXZ
?IsWritable@GDALMDArrayRegularlySpaced@@UEBA_NXZ
?Italic@OGRStyleLabel@@QEAAHAEAH@Z
?JobQueueFunction@CPLJobQueue@@CAXPEAX@Z
?Join@OGRStylePen@@QEAAPEBDAEAH@Z
?KShortestPaths@GNMGraph@@UEAA?AV?$vector@V?$vector@U?$pair@_J_J@std@@V?$allocator@U?$pair@_J_J@std@@@2@@std@@V?$allocator@V?$vector@U?$pair@_J_J@std@@V?$allocator@U?$pair@_J_J@std@@@2@@std@@@2@@std@@_J0_K@Z
?LeaveDisableDirtyBlockFlush@GDALRasterBlock@@SAXXZ
?LeaveReadWrite@GDALDataset@@IEAAXXZ
?LeaveReadWrite@GDALRasterBand@@IEAAXXZ
?List@CPLStringList@@QEAAPEAPEADXZ
?List@CPLStringList@@QEBAPEBQEBDXZ
?Load@CPLJSONDocument@@QEAA_NAEBV?$basic_string@DU?$char_traits@D@std@@V?$allocator@D@2@@std@@@Z
?Load@GDALPamMultiDim@@AEAAXXZ
?LoadChunks@CPLJSONDocument@@QEAA_NAEBV?$basic_string@DU?$char_traits@D@std@@V?$allocator@D@2@@std@@_KP6AHNPEBDPEAX@Z3@Z
?LoadFeaturesLayer@GNMGenericNetwork@@MEAA?AW4CPLErr@@QEAVGDALDataset@@@Z
?LoadGraph@GNMGenericNetwork@@MEAA?AW4CPLErr@@XZ
?LoadGraphLayer@GNMGenericNetwork@@MEAA?AW4CPLErr@@QEAVGDALDataset@@@Z
?LoadInfo@S57ClassRegistrar@@QEAA_NPEBD0_N@Z
?LoadJP2Metadata@GDALJP2AbstractDataset@@QEAAXPEAVGDALOpenInfo@@PEBDPEAU_iobuf@@@Z
?LoadMemory@CPLJSONDocument@@QEAA_NAEBV?$basic_string@DU?$char_traits@D@std@@V?$allocator@D@2@@std@@@Z
?LoadMemory@CPLJSONDocument@@QEAA_NPEBEH@Z
?LoadMetadata@GDALMDReaderBase@@MEAAXXZ
?LoadMetadata@GDALMDReaderPleiades@@MEAAXXZ
?LoadMetadataLayer@GNMGenericNetwork@@MEAA?AW4CPLErr@@QEAVGDALDataset@@@Z
?LoadNetworkSrs@GNMGenericNetwork@@MEAA?AW4CPLErr@@XZ
?LoadRPCXmlFile@GDALMDReaderPleiades@@QEAAPEAPEADXZ
?LoadStyleTable@OGRStyleTable@@QEAAHPEBD@Z
?LoadUrl@CPLJSONDocument@@QEAA_NAEBV?$basic_string@DU?$char_traits@D@std@@V?$allocator@D@2@@std@@PEBQEBDP6AHNPEBDPEAX@Z3@Z
?LoadVectorLayers@GDALJP2AbstractDataset@@QEAAXH@Z
?LockBuffer@GDALAsyncReader@@UEAAHN@Z
?LookupValue@VRTComplexSource@@QEAANN@Z
?MEMGroupCreateMDArray@@YA?AV?$shared_ptr@VGDALMDArray@@@std@@PEAVGDALGroup@@AEBV?$basic_string@DU?$char_traits@D@std@@V?$allocator@D@2@@2@AEBV?$vector@V?$shared_ptr@VGDALDimension@@@std@@V?$allocator@V?$shared_ptr@VGDALDimension@@@std@@@2@@2@AEBVGDALExtendedDataType@@PEAXPEBQEBD@Z
?MITABCoordSys2SpatialRef@@YAPEAVOGRSpatialReference@@PEBD@Z
?MITABSpatialRef2CoordSys@@YAPEADPEBVOGRSpatialReference@@@Z
?Make2D@OGRSimpleCurve@@IEAAXXZ
?Make3D@OGRSimpleCurve@@IEAAXXZ
?MakeArrayContext@CPLJSonStreamingWriter@@QEAA?AUArrayContext@1@_N@Z
?MakeObjectContext@CPLJSonStreamingWriter@@QEAA?AUObjectContext@1@XZ
?MakeOurOwnCopy@CPLStringList@@AEAA_NXZ
?MakeRecord@S57Writer@@QEAAPEAVDDFRecord@@XZ
?MakeValid@OGRGeometry@@UEBAPEAV1@PEBQEBD@Z
?MakeValueSafe@OGR_SRSNode@@QEAAXXZ
?MarkAsShared@GDALDataset@@QEAAXXZ
?MarkAsTimestamp@swq_expr_node@@QEAAXXZ
?MarkClean@GDALRasterBlock@@QEAAXXZ
?MarkDirty@GDALRasterBlock@@QEAAXXZ
?MarkPamDirty@GDALPamDataset@@QEAAXXZ
?MarkPamDirty@GDALPamRasterBand@@IEAAXXZ
?MarkSuppressOnClose@GDALDataset@@QEAAXXZ
?MassageName@GDALMDArray@@KA?AV?$basic_string@DU?$char_traits@D@std@@V?$allocator@D@2@@std@@AEBV23@@Z
?Merge@OGREnvelope3D@@QEAAXAEBV1@@Z
?Merge@OGREnvelope3D@@QEAAXAEBVOGREnvelope@@@Z
?Merge@OGREnvelope3D@@QEAAXNNN@Z
?Merge@OGREnvelope@@QEAAXAEBV1@@Z
?Merge@OGREnvelope@@QEAAXNN@Z
?MergeSRSName@GMLFeatureClass@@QEAAXPEBD@Z
?MergeSRSName@GMLGeometryPropertyDefn@@QEAAXAEBV?$basic_string@DU?$char_traits@D@std@@V?$allocator@D@2@@std@@@Z
?Mkdir@VSIFilesystemHandler@@UEAAHPEBDJ@Z
?ModifyStyle@OGRStyleTable@@QEAAHPEBD0@Z
?NO_SCANLINE_LOADED@RawRasterBand@@1HB
?NaN@TileMatrixSet@gdal@@0NB
?NeedMaxValAdjustment@VRTSimpleSource@@IEBAHXZ
?NeedsByteOrderChange@RawRasterBand@@AEBA_NXZ
?NeedsFreeDynamicMemory@GDALExtendedDataType@@QEBA_NXZ
?NeedsQuoting@OGR_SRSNode@@AEBAHXZ
?NextPendingMultiPoint@S57Reader@@AEAAPEAVOGRFeature@@XZ
?Normalize@OGRGeometry@@UEBAPEAV1@XZ
?Null@CPLJSonStreamingParser@@UEAAXXZ
?Number@CPLJSonStreamingParser@@UEAAXPEBD_K@Z
?OColor@OGRStyleSymbol@@QEAAPEBDAEAH@Z
?OGRCheckPermutation@@YAHPEBHH@Z
?OGRCreateCoordinateTransformation@@YAPEAVOGRCoordinateTransformation@@PEBVOGRSpatialReference@@0@Z
?OGRCreateCoordinateTransformation@@YAPEAVOGRCoordinateTransformation@@PEBVOGRSpatialReference@@0AEBUOGRCoordinateTransformationOptions@@@Z
?OGRCreateDefaultLayerIndex@@YAPEAVOGRLayerAttrIndex@@XZ
?OGRCreateEmulatedTransactionDataSourceWrapper@@YAPEAVOGRDataSource@@PEAV1@PEAVIOGRTransactionBehaviour@@HH@Z
?OGRCreateExpatXMLParser@@YAPEAUXML_ParserStruct@@XZ
?OGRCreateFromMultiPatch@@YAPEAVOGRGeometry@@HPEBH0HPEBN11@Z
?OGRCreateFromShapeBin@@YAHPEAEPEAPEAVOGRGeometry@@H@Z
?OGRCreateMultiPatch@@YAHPEBVOGRGeometry@@HAEAHAEAPEAH21AEAPEAVOGRRawPoint@@AEAPEAN@Z
?OGRFormatDouble@@YA?AV?$basic_string@DU?$char_traits@D@std@@V?$allocator@D@2@@std@@NAEBUOGRWktOptions@@@Z
?OGRFormatDouble@@YAXPEADHNDHD@Z
?OGRFromOGCGeomType@@YA?AW4OGRwkbGeometryType@@PEBD@Z
?OGRGeneralCmdLineProcessor@@YAHHPEAPEAPEADH@Z
?OGRGeoJSONReadGeometry@@YAPEAVOGRGeometry@@PEAUjson_object@@@Z
?OGRGeoJSONWriteGeometry@@YAPEAUjson_object@@PEBVOGRGeometry@@AEBVOGRGeoJSONWriteOptions@@@Z
?OGRGeometryFromEWKB@@YAPEAVOGRGeometry@@PEAEHPEAHH@Z
?OGRGeometryFromHexEWKB@@YAPEAVOGRGeometry@@PEBDPEAHH@Z
?OGRGeometryToHexEWKB@@YAPEADPEAVOGRGeometry@@HHH@Z
?OGRGetDayOfWeek@@YAHHHH@Z
?OGRGetRFC822DateTime@@YAPEADPEBTOGRField@@@Z
?OGRGetXMLDateTime@@YAPEADPEBTOGRField@@@Z
?OGRGetXMLDateTime@@YAPEADPEBTOGRField@@_N@Z
?OGRGetXML_UTF8_EscapedString@@YAPEADPEBD@Z
?OGRHStoreGetValue@@YAPEADPEBD0@Z
?OGRJSonParse@@YA_NPEBDPEAPEAUjson_object@@_N@Z
?OGRMakeWktCoordinate@@YA?AV?$basic_string@DU?$char_traits@D@std@@V?$allocator@D@2@@std@@NNNHUOGRWktOptions@@@Z
?OGRMakeWktCoordinate@@YAXPEADNNNH@Z
?OGRMakeWktCoordinateM@@YA?AV?$basic_string@DU?$char_traits@D@std@@V?$allocator@D@2@@std@@NNNNHHUOGRWktOptions@@@Z
?OGRMakeWktCoordinateM@@YAXPEADNNNNHH@Z
?OGRPGCommonAppendCopyFieldsExceptGeom@@YAXAEAVCPLString@@PEAVOGRFeature@@PEBD_NAEBV?$vector@_NV?$allocator@_N@std@@@std@@P6A?AV1@PEAX2H22@Z5@Z
?OGRPGCommonAppendFieldValue@@YAXAEAVCPLString@@PEAVOGRFeature@@HP6A?AV1@PEAXPEBDH33@Z2@Z
?OGRPGCommonLaunderName@@YAPEADPEBD0@Z
?OGRPGCommonLayerGetPGDefault@@YA?AVCPLString@@PEAVOGRFieldDefn@@@Z
?OGRPGCommonLayerGetType@@YA?AVCPLString@@AEAVOGRFieldDefn@@_N1@Z
?OGRPGCommonLayerNormalizeDefault@@YAXPEAVOGRFieldDefn@@PEBD@Z
?OGRPGCommonLayerSetType@@YA_NAEAVOGRFieldDefn@@PEBD1H@Z
?OGRParseDateTimeYYYYMMDDTHHMMSSZ@@YA_NPEBD_KPEATOGRField@@@Z
?OGRParseDateTimeYYYYMMDDTHHMMSSsssZ@@YA_NPEBD_KPEATOGRField@@@Z
?OGRParseRFC822DateTime@@YAHPEBDPEATOGRField@@@Z
?OGRParseXMLDateTime@@YAHPEBDPEATOGRField@@@Z
?OGRReadWKBGeometryType@@YAHPEBEW4OGRwkbVariant@@PEAW4OGRwkbGeometryType@@@Z
?OGRReadWKTGeometryType@@YAHPEBDPEAW4OGRwkbGeometryType@@@Z
?OGRSQLiteImportSpatiaLiteGeometry@@YAHPEBEHPEAPEAVOGRGeometry@@PEAH@Z
?OGRToOGCGeomType@@YAPEBDW4OGRwkbGeometryType@@@Z
?OGRUpdateFieldType@@YAXPEAVOGRFieldDefn@@W4OGRFieldType@@W4OGRFieldSubType@@@Z
?OGRWktReadPoints@@YAPEBDPEBDPEAPEAVOGRRawPoint@@PEAPEANPEAH3@Z
?OGRWktReadPointsM@@YAPEBDPEBDPEAPEAVOGRRawPoint@@PEAPEAN2PEAH33@Z
?OGRWktReadToken@@YAPEBDPEBDPEAD@Z
?OGRWriteMultiPatchToShapeBin@@YAHPEBVOGRGeometry@@PEAPEAEPEAH@Z
?OGRWriteToShapeBin@@YAHPEBVOGRGeometry@@PEAPEAEPEAH@Z
?OGR_G_3D@OGRGeometry@@2IB
?OGR_G_MEASURED@OGRGeometry@@2IB
?OGR_G_NOT_EMPTY_POINT@OGRGeometry@@2IB
?OGR_GreatCircle_ExtendPosition@@YAHNNNNPEAN0@Z
?OGRexportToSFCGAL@OGRGeometry@@SAPEAXPEBV1@@Z
?OSRGetEllipsoidInfo@@YAHHPEAPEADPEAN1@Z
?Offset@OGRStyleSymbol@@QEAANAEAH@Z
?Open@GDALDataset@@SAPEAV1@PEBDIPEBQEBD11@Z
?Open@MEMDataset@@SAPEAVGDALDataset@@PEAVGDALOpenInfo@@@Z
?Open@S57Reader@@QEAAHH@Z
?Open@VRTDataset@@SAPEAVGDALDataset@@PEAVGDALOpenInfo@@@Z
?Open@VSIFilesystemHandler@@QEAAPEAVVSIVirtualHandle@@PEBD0@Z
?OpenDimensionFromFullname@GDALGroup@@QEBA?AV?$shared_ptr@VGDALDimension@@@std@@AEBV?$basic_string@DU?$char_traits@D@std@@V?$allocator@D@2@@3@@Z
?OpenDir@VSIFilesystemHandler@@UEAAPEAUVSIDIR@@PEBDHPEBQEBD@Z
?OpenGroup@GDALGroup@@UEBA?AV?$shared_ptr@VGDALGroup@@@std@@AEBV?$basic_string@DU?$char_traits@D@std@@V?$allocator@D@2@@3@PEBQEBD@Z
?OpenGroup@MEMGroup@@UEBA?AV?$shared_ptr@VGDALGroup@@@std@@AEBV?$basic_string@DU?$char_traits@D@std@@V?$allocator@D@2@@3@PEBQEBD@Z
?OpenGroupFromFullname@GDALGroup@@QEBA?AV?$shared_ptr@VGDALGroup@@@std@@AEBV?$basic_string@DU?$char_traits@D@std@@V?$allocator@D@2@@3@PEBQEBD@Z
?OpenMDArray@GDALGroup@@UEBA?AV?$shared_ptr@VGDALMDArray@@@std@@AEBV?$basic_string@DU?$char_traits@D@std@@V?$allocator@D@2@@3@PEBQEBD@Z
?OpenMDArray@MEMGroup@@UEBA?AV?$shared_ptr@VGDALMDArray@@@std@@AEBV?$basic_string@DU?$char_traits@D@std@@V?$allocator@D@2@@3@PEBQEBD@Z
?OpenMDArrayFromFullname@GDALGroup@@QEBA?AV?$shared_ptr@VGDALMDArray@@@std@@AEBV?$basic_string@DU?$char_traits@D@std@@V?$allocator@D@2@@3@PEBQEBD@Z
?OpenSource@VRTSimpleSource@@AEBAXXZ
?OpenVRTProtocol@VRTDataset@@CAPEAVGDALDataset@@PEBD@Z
?OpenVectorLayer@GDALGroup@@UEBAPEAVOGRLayer@@AEBV?$basic_string@DU?$char_traits@D@std@@V?$allocator@D@2@@std@@PEBQEBD@Z
?OpenWithDriverArg@OGRSFDriverRegistrar@@CAPEAVGDALDataset@@PEAVGDALDriver@@PEAVGDALOpenInfo@@@Z
?OpenXML@VRTDataset@@SAPEAVGDALDataset@@PEBD0W4GDALAccess@@@Z
?OutlineColor@OGRStyleLabel@@QEAAPEBDAEAH@Z
?Overlaps@OGRGeometry@@UEBAHPEBV1@@Z
?OverviewRasterIO@GDALRasterBand@@IEAA?AW4CPLErr@@W4GDALRWFlag@@HHHHPEAXHHW4GDALDataType@@_J3PEAUGDALRasterIOExtraArg@@@Z
?OverviewScan@GDALDefaultOverviews@@AEAAXXZ
?PRead@VSIVirtualHandle@@UEBA_KPEAX_K1@Z
?PamAllocateProxy@@YAPEBDPEBD@Z
?PamCleanProxyDB@@YAXXZ
?PamClear@GDALPamDataset@@IEAAXXZ
?PamClear@GDALPamRasterBand@@IEAAXXZ
?PamFindMatchingHistogram@@YAPEAUCPLXMLNode@@PEAU1@NNHHH@Z
?PamGetProxy@@YAPEBDPEBD@Z
?PamHistogramToXMLTree@@YAPEAUCPLXMLNode@@NNHPEA_KHH@Z
?PamInitialize@GDALPamDataset@@IEAAXXZ
?PamInitialize@GDALPamRasterBand@@IEAAXXZ
?PamInitializeNoParent@GDALPamRasterBand@@IEAAXXZ
?PamParseHistogram@@YAHPEAUCPLXMLNode@@PEAN1PEAHPEAPEA_K22@Z
?Parse@CPLJSonStreamingParser@@UEAA_NPEBD_K_N@Z
?Parse@OGRStyleBrush@@EEAAHXZ
?Parse@OGRStyleLabel@@EEAAHXZ
?Parse@OGRStylePen@@EEAAHXZ
?Parse@OGRStyleSymbol@@EEAAHXZ
?Parse@OGRStyleTool@@IEAAHPEBUogr_style_param@@PEAUogr_style_value@@H@Z
?ParseGMLCoverageDesc@GDALJP2Metadata@@QEAAHXZ
?ParseJP2GeoTIFF@GDALJP2Metadata@@QEAAHXZ
?ParseMSIG@GDALJP2Metadata@@QEAAHXZ
?ParseName@S57Reader@@AEAAHPEAVDDFField@@HPEAH@Z
?ParseRuleString@GNMRule@@MEAA_NXZ
?PartialFindString@CPLStringList@@QEBAHPEBD@Z
?PatchOverview@MRFDataset@GDAL_MRF@@UEAA?AW4CPLErr@@HHHHHHH@Z
?Pattern@OGRStylePen@@QEAAPEBDAEAH@Z
?PerformWarp@GDALWarpKernel@@QEAA?AW4CPLErr@@XZ
?Perp@OGRStyleLabel@@QEAANAEAH@Z
?Perp@OGRStyleSymbol@@QEAANAEAH@Z
?PerpendicularOffset@OGRStylePen@@QEAANAEAH@Z
?Placement@OGRStyleLabel@@QEAAPEBDAEAH@Z
?PointOnSurface@OGRMultiSurface@@UEBAHPEAVOGRPoint@@@Z
?PointOnSurface@OGRPolyhedralSurface@@UEBAHPEAVOGRPoint@@@Z
?PointOnSurface@OGRSurface@@UEBAHPEAVOGRPoint@@@Z
?PointOnSurfaceInternal@OGRGeometry@@IEBAHPEAVOGRPoint@@@Z
?Polygonize@OGRGeometry@@UEBAPEAV1@XZ
?Print@CPLJSonStreamingWriter@@AEAAXAEBV?$basic_string@DU?$char_traits@D@std@@V?$allocator@D@2@@std@@@Z
?Print@OGRStyleTable@@QEAAXPEAU_iobuf@@@Z
?Printf@CPLString@@QEAAAEAV1@PEBDZZ
?Priority@OGRStyleBrush@@QEAAHAEAH@Z
?Priority@OGRStyleLabel@@QEAAHAEAH@Z
?Priority@OGRStylePen@@QEAAHAEAH@Z
?Priority@OGRStyleSymbol@@QEAAHAEAH@Z
?ProcessBlock@VRTWarpedDataset@@QEAA?AW4CPLErr@@HH@Z
?ProcessPerChunk@GDALAbstractMDArray@@UEAA_NPEB_K00P6A_NPEAV1@00_K2PEAX@Z3@Z
?ProcessSQLAlterTableAddColumn@GDALDataset@@IEAAHPEBD@Z
?ProcessSQLAlterTableAlterColumn@GDALDataset@@IEAAHPEBD@Z
?ProcessSQLAlterTableDropColumn@GDALDataset@@IEAAHPEBD@Z
?ProcessSQLAlterTableRenameColumn@GDALDataset@@IEAAHPEBD@Z
?ProcessSQLCreateIndex@GDALDataset@@IEAAHPEBD@Z
?ProcessSQLDropIndex@GDALDataset@@IEAAHPEBD@Z
?ProcessSQLDropTable@GDALDataset@@IEAAHPEBD@Z
?Project@OGRSimpleCurve@@UEBANPEBVOGRPoint@@@Z
?PromoteTo3D@OGRSpatialReference@@QEAAHPEBD@Z
?PushField@swq_select@@QEAAHPEAVswq_expr_node@@PEBDH@Z
?PushJoin@swq_select@@QEAAXHPEAVswq_expr_node@@@Z
?PushOrderBy@swq_select@@QEAAXPEBD0H@Z
?PushSubExpression@swq_expr_node@@QEAAXPEAV1@@Z
?PushTableDef@swq_select@@QEAAHPEBD00@Z
?PushUnionAll@swq_select@@QEAAXPEAV1@@Z
?QuietDelete@GDALDriver@@SA?AW4CPLErr@@PEBDPEBQEBD@Z
?Quote@swq_expr_node@@SA?AVCPLString@@AEBV2@D@Z
?QuoteIfNecessary@swq_expr_node@@SA?AVCPLString@@AEBV2@D@Z
?RAWDatasetCheckMemoryUsage@@YA_NHHHHHH_K0PEAU_iobuf@@@Z
?RasterIO@GDALDataset@@QEAA?AW4CPLErr@@W4GDALRWFlag@@HHHHPEAXHHW4GDALDataType@@HPEAH_J44PEAUGDALRasterIOExtraArg@@@Z
?RasterIO@GDALRasterBand@@QEAA?AW4CPLErr@@W4GDALRWFlag@@HHHHPEAXHHW4GDALDataType@@_J3PEAUGDALRasterIOExtraArg@@@Z
?RasterIO@VRTComplexSource@@UEAA?AW4CPLErr@@W4GDALDataType@@HHHHPEAXHH0_J2PEAUGDALRasterIOExtraArg@@@Z
?RasterIO@VRTSimpleSource@@UEAA?AW4CPLErr@@W4GDALDataType@@HHHHPEAXHH0_J2PEAUGDALRasterIOExtraArg@@@Z
?RasterIOResampled@GDALDataset@@IEAA?AW4CPLErr@@W4GDALRWFlag@@HHHHPEAXHHW4GDALDataType@@HPEAH_J44PEAUGDALRasterIOExtraArg@@@Z
?RasterIOResampled@GDALRasterBand@@IEAA?AW4CPLErr@@W4GDALRWFlag@@HHHHPEAXHHW4GDALDataType@@_J3PEAUGDALRasterIOExtraArg@@@Z
?RasterInitialize@GDALDataset@@IEAAXHH@Z
?ReacquireReadWriteLock@GDALDataset@@IEAAXXZ
?Read@GDALAbstractMDArray@@UEBA_NPEB_K0PEB_J1AEBVGDALExtendedDataType@@PEAXPEBX_K@Z
?Read@GDALMDArray@@UEBA_NPEB_K0PEB_J1AEBVGDALExtendedDataType@@PEAXPEBX_K@Z
?Read@RawRasterBand@@IEAA_KPEAX_K1@Z
?ReadAndParse@GDALJP2Metadata@@QEAAHPEAU_iobuf@@HHHPEAH@Z
?ReadAndParse@GDALJP2Metadata@@QEAAHPEBDHHHHPEAH@Z
?ReadAsDouble@GDALAttribute@@QEBANXZ
?ReadAsDoubleArray@GDALAttribute@@QEBA?AV?$vector@NV?$allocator@N@std@@@std@@XZ
?ReadAsInt@GDALAttribute@@QEBAHXZ
?ReadAsIntArray@GDALAttribute@@QEBA?AV?$vector@HV?$allocator@H@std@@@std@@XZ
?ReadAsRaw@GDALAttribute@@QEBA?AVGDALRawResult@@XZ
?ReadAsString@GDALAttribute@@QEBAPEBDXZ
?ReadAsStringArray@GDALAttribute@@QEBA?AVCPLStringList@@XZ
?ReadBlock@GDALRasterBand@@QEAA?AW4CPLErr@@HHPEAX@Z
?ReadBox@GDALJP2Box@@QEAAHXZ
?ReadBox@GDALJP2Metadata@@QEAAXPEAU_iobuf@@AEAVGDALJP2Box@@AEAH@Z
?ReadBoxData@GDALJP2Box@@QEAAPEAEXZ
?ReadBoxes@GDALJP2Metadata@@QEAAHPEAU_iobuf@@@Z
?ReadDSID@S57Reader@@QEAAPEAVOGRFeature@@XZ
?ReadDir@VSIFilesystemHandler@@UEAAPEAPEADPEBD@Z
?ReadDirEx@VSIFilesystemHandler@@UEAAPEAPEADPEBDH@Z
?ReadFeature@S57Reader@@QEAAPEAVOGRFeature@@HPEAVOGRFeatureDefn@@@Z
?ReadFirst@GDALJP2Box@@QEAAHXZ
?ReadFirstChild@GDALJP2Box@@QEAAHPEAV1@@Z
?ReadForTransposedRequest@GDALMDArray@@IEBA_NPEB_K0PEB_J1AEBVGDALExtendedDataType@@PEAX@Z
?ReadGroup@CPLKeywordParser@@AEAA_NPEBDH@Z
?ReadGroup@NASAKeywordHandler@@AEAAHAEBV?$basic_string@DU?$char_traits@D@std@@V?$allocator@D@2@@std@@AEAVCPLJSONObject@@H@Z
?ReadLine@S57ClassRegistrar@@AEAAPEBDPEAU_iobuf@@@Z
?ReadMultiRange@VSIVirtualHandle@@UEAAHHPEAPEAXPEB_K1@Z
?ReadNext@GDALJP2Box@@QEAAHXZ
?ReadNextChild@GDALJP2Box@@QEAAHPEAV1@@Z
?ReadNextFeature@S57Reader@@QEAAPEAVOGRFeature@@PEAVOGRFeatureDefn@@@Z
?ReadPair@CPLKeywordParser@@AEAA_NAEAVCPLString@@0@Z
?ReadPair@NASAKeywordHandler@@AEAAHAEAVCPLString@@0AEAVCPLJSONObject@@@Z
?ReadVector@S57Reader@@QEAAPEAVOGRFeature@@HH@Z
?ReadWord@CPLKeywordParser@@AEAA_NAEAVCPLString@@@Z
?ReadWord@NASAKeywordHandler@@AEAAHAEAVCPLString@@_N1PEA_N@Z
?ReadWrite@MEMAbstractMDArray@@AEBAX_NPEB_KAEAV?$vector@UStackReadWrite@MEMAbstractMDArray@@V?$allocator@UStackReadWrite@MEMAbstractMDArray@@@std@@@std@@AEBVGDALExtendedDataType@@3@Z
?ReadXMLToList@GDALMDReaderBase@@AEAAPEAPEADPEBUCPLXMLNode@@PEAPEADAEBV?$map@V?$basic_string@DU?$char_traits@D@std@@V?$allocator@D@2@@std@@HU?$less@V?$basic_string@DU?$char_traits@D@std@@V?$allocator@D@2@@std@@@2@V?$allocator@U?$pair@$$CBV?$basic_string@DU?$char_traits@D@std@@V?$allocator@D@2@@std@@H@std@@@2@@std@@AEAV34@3AEBV?$basic_string@DU?$char_traits@D@std@@V?$allocator@D@2@@4@4@Z
?ReadXMLToList@GDALMDReaderBase@@MEAAPEAPEADPEAUCPLXMLNode@@PEAPEADPEBD@Z
?ReadXMLToListFirstPass@GDALMDReaderBase@@AEAA_NPEBUCPLXMLNode@@AEAV?$map@V?$basic_string@DU?$char_traits@D@std@@V?$allocator@D@2@@std@@HU?$less@V?$basic_string@DU?$char_traits@D@std@@V?$allocator@D@2@@std@@@2@V?$allocator@U?$pair@$$CBV?$basic_string@DU?$char_traits@D@std@@V?$allocator@D@2@@std@@H@std@@@2@@std@@AEBV?$basic_string@DU?$char_traits@D@std@@V?$allocator@D@2@@4@H@Z
?Recode@CPLString@@QEAAAEAV1@PEBD0@Z
?RecodeByDSSI@S57Reader@@QEAAPEADPEBD_N@Z
?ReconnectFeatures@GNMGenericNetwork@@UEAA?AW4CPLErr@@_J00NNH@Z
?RecycleFor@GDALRasterBlock@@AEAAXHH@Z
?RefUnderlyingDataset@GDALProxyPoolDataset@@AEBAPEAVGDALDataset@@_N@Z
?RefUnderlyingDataset@GDALProxyPoolDataset@@MEBAPEAVGDALDataset@@XZ
?RefUnderlyingRasterBand@GDALProxyPoolRasterBand@@AEBAPEAVGDALRasterBand@@_N@Z
?RefUnderlyingRasterBand@GDALProxyPoolRasterBand@@MEBAPEAVGDALRasterBand@@XZ
?Reference@GDALDataset@@QEAAHXZ
?Reference@OGRFeatureDefn@@QEAAHXZ
?Reference@OGRLayer@@QEAAHXZ
?Reference@OGRSpatialReference@@QEAAHXZ
?RegisterDriver@GDALDriverManager@@QEAAHPEAVGDALDriver@@@Z
?RegisterDriver@OGRSFDriverRegistrar@@QEAAXPEAVOGRSFDriver@@@Z
?RegisterListener@OGR_SRSNode@@QEAAXAEBV?$shared_ptr@UListener@OGR_SRSNode@@@std@@@Z
?Release@GDALDataset@@QEAAHXZ
?Release@OGRFeatureDefn@@QEAAXXZ
?Release@OGRSpatialReference@@QEAAXXZ
?ReleaseArray@OGRLayer@@KAXPEAUArrowArray@@@Z
?ReleaseMutex@GDALDataset@@IEAAXXZ
?ReleaseRef@GDALDataset@@QEAAHXZ
?ReleaseResultSet@GDALDataset@@UEAAXPEAVOGRLayer@@@Z
?ReleaseResultSet@OGRMutexedDataSource@@UEAAXPEAVOGRLayer@@@Z
?ReleaseSchema@OGRLayer@@KAXPEAUArrowSchema@@@Z
?ReleaseStream@OGRLayer@@KAXPEAUArrowArrayStream@@@Z
?RemapFields@OGRFeature@@QEAAHPEAVOGRFeatureDefn@@PEBH@Z
?RemapGeomFields@OGRFeature@@QEAAHPEAVOGRFeatureDefn@@PEBH@Z
?RemoveCoveredSources@VRTSourcedRasterBand@@QEAAXPEBQEBD@Z
?RemoveM@OGRSimpleCurve@@IEAAXXZ
?RemoveRecord@DDFRecordIndex@@QEAA_NH@Z
?RemoveStatistics@GDALDefaultRasterAttributeTable@@UEAAXXZ
?RemoveStyle@OGRStyleTable@@QEAAHPEBD@Z
?Rename@GDALDriver@@QEAA?AW4CPLErr@@PEBD0@Z
?Rename@OGRLayer@@UEAAHPEBD@Z
?Rename@OGRLayerDecorator@@UEAAHPEBD@Z
?Rename@OGRMutexedLayer@@UEAAHPEBD@Z
?Rename@VSIFilesystemHandler@@UEAAHPEBD0@Z
?ReorderDrivers@GDALDriverManager@@QEAAXXZ
?ReorderField@OGRLayer@@QEAAHHH@Z
?ReorderFieldDefns@OGRFeatureDefn@@UEAAHPEBH@Z
?ReorderFields@OGREditableLayer@@UEAAHPEAH@Z
?ReorderFields@OGRLayer@@UEAAHPEAH@Z
?ReorderFields@OGRLayerDecorator@@UEAAHPEAH@Z
?ReorderFields@OGRMemLayer@@UEAAHPEAH@Z
?ReorderFields@OGRMutexedLayer@@UEAAHPEAH@Z
?ReplaceBetweenByGEAndLERecurse@swq_expr_node@@QEAAXXZ
?ReportError@GDALDataset@@QEAAXW4CPLErr@@HPEBDZZ
?ReportError@GDALDataset@@SAXPEBDW4CPLErr@@H0ZZ
?ReportError@GDALRasterBand@@QEAAXW4CPLErr@@HPEBDZZ
?ReportErrorV@GDALDataset@@CAXPEBDW4CPLErr@@H0PEAD@Z
?ReportTiming@GDALWarpOperation@@AEAAXPEBD@Z
?ReserveSpaceForFields@OGRFeatureDefn@@QEAAXH@Z
?Reset@CPLJSonStreamingParser@@UEAAXXZ
?Reset@OGRFeature@@QEAAXXZ
?ResetNoDataValues@GDALPamRasterBand@@AEAAXXZ
?ResetNoDataValues@VRTRasterBand@@AEAAXXZ
?ResetReading@GDALDataset@@UEAAXXZ
?ResetReading@OGREditableLayer@@UEAAXXZ
?ResetReading@OGRLayerDecorator@@UEAAXXZ
?ResetReading@OGRMemLayer@@UEAAXXZ
?ResetReading@OGRMutexedLayer@@UEAAXXZ
?ResetReading@OGRUnionLayer@@UEAAXXZ
?ResetStyleStringReading@OGRStyleTable@@QEAAXXZ
?ResolveMDArray@GDALGroup@@QEBA?AV?$shared_ptr@VGDALMDArray@@@std@@AEBV?$basic_string@DU?$char_traits@D@std@@V?$allocator@D@2@@3@0PEBQEBD@Z
?ReverseSubExpressions@swq_expr_node@@QEAAXXZ
?Rewind@S57Reader@@QEAAXXZ
?Rmdir@VSIFilesystemHandler@@UEAAHPEBD@Z
?RmdirRecursive@VSIFilesystemHandler@@UEAAHPEBD@Z
?RollbackTransaction@GDALDataset@@UEAAHXZ
?RollbackTransaction@OGREditableLayer@@UEAAHXZ
?RollbackTransaction@OGRLayer@@UEAAHXZ
?RollbackTransaction@OGRLayerDecorator@@UEAAHXZ
?RollbackTransaction@OGRMutexedDataSource@@UEAAHXZ
?RollbackTransaction@OGRMutexedLayer@@UEAAHXZ
?S57GenerateDSIDFeatureDefn@@YAPEAVOGRFeatureDefn@@XZ
?S57GenerateGeomFeatureDefn@@YAPEAVOGRFeatureDefn@@W4OGRwkbGeometryType@@H@Z
?S57GenerateObjectClassDefn@@YAPEAVOGRFeatureDefn@@PEAVS57ClassRegistrar@@PEAVS57ClassContentExplorer@@HH@Z
?S57GenerateStandardAttributes@@YAXPEAVOGRFeatureDefn@@H@Z
?S57GenerateVectorPrimitiveFeatureDefn@@YAPEAVOGRFeatureDefn@@HH@Z
?SET_FROM_USER_INPUT_LIMITATIONS@OGRSpatialReference@@2QBQEBDB
?SET_FROM_USER_INPUT_LIMITATIONS_get@OGRSpatialReference@@SAPEBQEBDXZ
?SFCGALexportToOGR@OGRGeometry@@SAPEAV1@PEBX@Z
?SWQCastChecker@@YA?AW4swq_field_type@@PEAVswq_expr_node@@H@Z
?SWQCastEvaluator@@YAPEAVswq_expr_node@@PEAV1@PEAPEAV1@@Z
?SWQFieldTypeToString@@YAPEBDW4swq_field_type@@@Z
?SWQGeneralChecker@@YA?AW4swq_field_type@@PEAVswq_expr_node@@H@Z
?SWQGeneralEvaluator@@YAPEAVswq_expr_node@@PEAV1@PEAPEAV1@@Z
?Save@CPLJSONDocument@@QEBA_NAEBV?$basic_string@DU?$char_traits@D@std@@V?$allocator@D@2@@std@@@Z
?Save@GDALPamMultiDim@@AEAAXXZ
?SaveAsString@CPLJSONDocument@@QEBA?AV?$basic_string@DU?$char_traits@D@std@@V?$allocator@D@2@@std@@XZ
?SaveRules@GNMGenericNetwork@@MEAAXXZ
?SaveStyleTable@OGRStyleTable@@QEAAHPEBD@Z
?Seek@RawRasterBand@@IEAAH_KH@Z
?Serialize@GDALMultiDomainMetadata@@QEAAPEAUCPLXMLNode@@XZ
?Serialize@GDALRasterAttributeTable@@UEBAPEAUCPLXMLNode@@XZ
?SerializeJSON@GDALRasterAttributeTable@@UEBAPEAXXZ
?SerializeToXML@GDALPamDataset@@MEAAPEAUCPLXMLNode@@PEBD@Z
?SerializeToXML@GDALPamRasterBand@@MEAAPEAUCPLXMLNode@@PEBD@Z
?SerializeToXML@GMLFeatureClass@@QEAAPEAUCPLXMLNode@@XZ
?SerializeToXML@VRTComplexSource@@UEAAPEAUCPLXMLNode@@PEBD@Z
?SerializeToXML@VRTDataset@@UEAAPEAUCPLXMLNode@@PEBD@Z
?SerializeToXML@VRTDerivedRasterBand@@UEAAPEAUCPLXMLNode@@PEBD@Z
?SerializeToXML@VRTRasterBand@@UEAAPEAUCPLXMLNode@@PEBD@Z
?SerializeToXML@VRTRawRasterBand@@UEAAPEAUCPLXMLNode@@PEBD@Z
?SerializeToXML@VRTSimpleSource@@UEAAPEAUCPLXMLNode@@PEBD@Z
?SerializeToXML@VRTSourcedRasterBand@@UEAAPEAUCPLXMLNode@@PEBD@Z
?SerializeToXML@VRTWarpedDataset@@UEAAPEAUCPLXMLNode@@PEBD@Z
?SerializeToXML@VRTWarpedRasterBand@@UEAAPEAUCPLXMLNode@@PEBD@Z
?Set@CPLJSONObject@@QEAAXAEBV?$basic_string@DU?$char_traits@D@std@@V?$allocator@D@2@@std@@0@Z
?Set@CPLJSONObject@@QEAAXAEBV?$basic_string@DU?$char_traits@D@std@@V?$allocator@D@2@@std@@H@Z
?Set@CPLJSONObject@@QEAAXAEBV?$basic_string@DU?$char_traits@D@std@@V?$allocator@D@2@@std@@N@Z
?Set@CPLJSONObject@@QEAAXAEBV?$basic_string@DU?$char_traits@D@std@@V?$allocator@D@2@@std@@PEBD@Z
?Set@CPLJSONObject@@QEAAXAEBV?$basic_string@DU?$char_traits@D@std@@V?$allocator@D@2@@std@@_J@Z
?Set@CPLJSONObject@@QEAAXAEBV?$basic_string@DU?$char_traits@D@std@@V?$allocator@D@2@@std@@_N@Z
?Set@OGRFieldDefn@@QEAAXPEBDW4OGRFieldType@@HHW4OGRJustification@@@Z
?SetACEA@OGRSpatialReference@@QEAAHNNNNNN@Z
?SetAE@OGRSpatialReference@@QEAAHNNNN@Z
?SetAccess@RawRasterBand@@QEAAXW4GDALAccess@@@Z
?SetAdvertizeUTF8@OGRMemLayer@@QEAAX_N@Z
?SetAllowGetFileSize@GDALJP2Box@@QEAAX_N@Z
?SetAlternativeName@OGRFieldDefn@@QEAAXPEBD@Z
?SetAnchor@OGRStyleLabel@@QEAAXH@Z
?SetAngle@OGRStyleBrush@@QEAAXN@Z
?SetAngle@OGRStyleLabel@@QEAAXN@Z
?SetAngle@OGRStyleSymbol@@QEAAXN@Z
?SetAngularUnits@OGRSpatialReference@@QEAAHPEBDN@Z
?SetAreaOfInterest@OGRCoordinateTransformationOptions@@QEAA_NNNNN@Z
?SetAttributeFilter@OGREditableLayer@@UEAAHPEBD@Z
?SetAttributeFilter@OGRLayer@@UEAAHPEBD@Z
?SetAttributeFilter@OGRLayerDecorator@@UEAAHPEBD@Z
?SetAttributeFilter@OGRMutexedLayer@@UEAAHPEBD@Z
?SetAttributeFilter@OGRUnionLayer@@UEAAHPEBD@Z
?SetAuthority@OGRSpatialReference@@QEAAHPEBD0H@Z
?SetAxes@OGRSpatialReference@@QEAAHPEBD0W4OGRAxisOrientation@@01@Z
?SetAxisMappingStrategy@OGRSpatialReference@@QEAAXW4OSRAxisMappingStrategy@@@Z
?SetBackColor@OGRStyleBrush@@QEAAXPEBD@Z
?SetBackColor@OGRStyleLabel@@QEAAXPEBD@Z
?SetBackwardPathLabel@GDALRelationship@@QEAAXAEBV?$basic_string@DU?$char_traits@D@std@@V?$allocator@D@2@@std@@@Z
?SetBallparkAllowed@OGRCoordinateTransformationOptions@@QEAA_N_N@Z
?SetBand@GDALDataset@@IEAAXHPEAVGDALRasterBand@@@Z
?SetBold@OGRStyleLabel@@QEAAXH@Z
?SetBonne@OGRSpatialReference@@QEAAHNNNN@Z
?SetBoolOn@OGRArrowArrayHelper@@SAXPEAUArrowArray@@H@Z
?SetCEA@OGRSpatialReference@@QEAAHNNNN@Z
?SetCS@OGRSpatialReference@@QEAAHNNNN@Z
?SetCap@OGRStylePen@@QEAAXPEBD@Z
?SetCategoryNames@GDALPamRasterBand@@UEAA?AW4CPLErr@@PEAPEAD@Z
?SetCategoryNames@GDALProxyRasterBand@@UEAA?AW4CPLErr@@PEAPEAD@Z
?SetCategoryNames@GDALRasterBand@@UEAA?AW4CPLErr@@PEAPEAD@Z
?SetCategoryNames@RawRasterBand@@UEAA?AW4CPLErr@@PEAPEAD@Z
?SetCategoryNames@VRTRasterBand@@UEAA?AW4CPLErr@@PEAPEAD@Z
?SetClassBased@S57Reader@@QEAAXPEAVS57ClassRegistrar@@PEAVS57ClassContentExplorer@@@Z
?SetClassBased@S57Writer@@QEAAXPEAVS57ClassRegistrar@@PEAVS57ClassContentExplorer@@@Z
?SetClientInfoByIndex@DDFRecordIndex@@QEAAXHPEAX@Z
?SetColor@OGRStylePen@@QEAAXPEBD@Z
?SetColor@OGRStyleSymbol@@QEAAXPEBD@Z
?SetColorEntry@GDALColorTable@@QEAAXHPEBUGDALColorEntry@@@Z
?SetColorInterpretation@GDALPamRasterBand@@UEAA?AW4CPLErr@@W4GDALColorInterp@@@Z
?SetColorInterpretation@GDALProxyRasterBand@@UEAA?AW4CPLErr@@W4GDALColorInterp@@@Z
?SetColorInterpretation@GDALRasterBand@@UEAA?AW4CPLErr@@W4GDALColorInterp@@@Z
?SetColorInterpretation@RawRasterBand@@UEAA?AW4CPLErr@@W4GDALColorInterp@@@Z
?SetColorInterpretation@VRTRasterBand@@UEAA?AW4CPLErr@@W4GDALColorInterp@@@Z
?SetColorTable@GDALPamRasterBand@@UEAA?AW4CPLErr@@PEAVGDALColorTable@@@Z
?SetColorTable@GDALProxyRasterBand@@UEAA?AW4CPLErr@@PEAVGDALColorTable@@@Z
?SetColorTable@GDALRasterBand@@UEAA?AW4CPLErr@@PEAVGDALColorTable@@@Z
?SetColorTable@RawRasterBand@@UEAA?AW4CPLErr@@PEAVGDALColorTable@@@Z
?SetColorTable@VRTRasterBand@@UEAA?AW4CPLErr@@PEAVGDALColorTable@@@Z
?SetColorTableComponent@VRTComplexSource@@QEAAXH@Z
?SetCompoundCS@OGRSpatialReference@@QEAAHPEBDPEBV1@1@Z
?SetCondition@GMLPropertyDefn@@QEAAXPEBD@Z
?SetCoordinateEpoch@OGRSpatialReference@@QEAAXN@Z
?SetCoordinateOperation@OGRCoordinateTransformationOptions@@QEAA_NPEBD_N@Z
?SetDataAxisToSRSAxisMapping@OGRSpatialReference@@QEAAHAEBV?$vector@HV?$allocator@H@std@@@std@@@Z
?SetDate@OGRArrowArrayHelper@@SAXPEAUArrowArray@@HAEAUtm@@AEBTOGRField@@@Z
?SetDateTime@FieldValue@OGRFeature@@QEAAXHHHHHMH@Z
?SetDateTime@OGRArrowArrayHelper@@SAXPEAUArrowArray@@HAEAUtm@@AEBTOGRField@@@Z
?SetDefault@OGRFieldDefn@@QEAAXPEBD@Z
?SetDefaultHistogram@GDALPamRasterBand@@UEAA?AW4CPLErr@@NNHPEA_K@Z
?SetDefaultHistogram@GDALProxyRasterBand@@UEAA?AW4CPLErr@@NNHPEA_K@Z
?SetDefaultHistogram@GDALRasterBand@@UEAA?AW4CPLErr@@NNHPEA_K@Z
?SetDefaultHistogram@VRTRasterBand@@UEAA?AW4CPLErr@@NNHPEA_K@Z
?SetDefaultRAT@GDALPamRasterBand@@UEAA?AW4CPLErr@@PEBVGDALRasterAttributeTable@@@Z
?SetDefaultRAT@GDALProxyRasterBand@@UEAA?AW4CPLErr@@PEBVGDALRasterAttributeTable@@@Z
?SetDefaultRAT@GDALRasterBand@@UEAA?AW4CPLErr@@PEBVGDALRasterAttributeTable@@@Z
?SetDefaultRAT@VRTRasterBand@@UEAA?AW4CPLErr@@PEBVGDALRasterAttributeTable@@@Z
?SetDerivedGeogCRSWithPoleRotationGRIBConvention@OGRSpatialReference@@QEAAHPEBDNNN@Z
?SetDerivedGeogCRSWithPoleRotationNetCDFCFConvention@OGRSpatialReference@@QEAAHPEBDNNN@Z
?SetDescription@GDALMajorObject@@UEAAXPEBD@Z
?SetDescription@GDALPamRasterBand@@UEAAXPEBD@Z
?SetDescription@VRTRasterBand@@UEAAXPEBD@Z
?SetDesiredAccuracy@OGRCoordinateTransformationOptions@@QEAA_NN@Z
?SetDomainName@OGRFieldDefn@@QEAAXAEBV?$basic_string@DU?$char_traits@D@std@@V?$allocator@D@2@@std@@@Z
?SetDouble@OGRArrowArrayHelper@@SAXPEAUArrowArray@@HN@Z
?SetDstWindow@VRTSimpleSource@@QEAAXNNNN@Z
?SetEC@OGRSpatialReference@@QEAAHNNNNNN@Z
?SetEckert@OGRSpatialReference@@QEAAHHNNN@Z
?SetEckertIV@OGRSpatialReference@@QEAAHNNN@Z
?SetEckertVI@OGRSpatialReference@@QEAAHNNN@Z
?SetElementName@GMLFeatureClass@@QEAAXPEBD@Z
?SetEmitErrors@OGRCoordinateTransformation@@UEAAX_N@Z
?SetEmptyStringOrBinary@OGRArrowArrayHelper@@SAXPEAUArrowArray@@H@Z
?SetEnableOverviews@GDALDataset@@QEAAX_N@Z
?SetEquirectangular2@OGRSpatialReference@@QEAAHNNNNN@Z
?SetEquirectangular@OGRSpatialReference@@QEAAHNNNN@Z
?SetExtension@OGRSpatialReference@@QEAAHPEBD00@Z
?SetExtents@GMLFeatureClass@@QEAAXNNNN@Z
?SetExtraInfo@GMLFeatureClass@@QEAAXPEBD@Z
?SetFDefnUnsafe@OGRFeature@@QEAAXPEAVOGRFeatureDefn@@@Z
?SetFID@GMLFeature@@QEAAXPEBD@Z
?SetFID@OGRFeature@@UEAAH_J@Z
?SetFP@IGMLReader@@UEAAXPEAU_iobuf@@@Z
?SetFeature@OGRLayer@@QEAAHPEAVOGRFeature@@@Z
?SetFeatureCount@GMLFeatureClass@@QEAAX_J@Z
?SetFeatureCount@OGRUnionLayer@@QEAAXH@Z
?SetFeatureStyleString@OGRStyleMgr@@QEAAHPEAVOGRFeature@@PEBDH@Z
?SetField@OGRFeature@@QEAAXHH@Z
?SetField@OGRFeature@@QEAAXHHHHHHMH@Z
?SetField@OGRFeature@@QEAAXHHPEBH@Z
?SetField@OGRFeature@@QEAAXHHPEBN@Z
?SetField@OGRFeature@@QEAAXHHPEBX@Z
?SetField@OGRFeature@@QEAAXHHPEB_J@Z
?SetField@OGRFeature@@QEAAXHN@Z
?SetField@OGRFeature@@QEAAXHPEBD@Z
?SetField@OGRFeature@@QEAAXHPEBQEBD@Z
?SetField@OGRFeature@@QEAAXHPEBTOGRField@@@Z
?SetField@OGRFeature@@QEAAXH_J@Z
?SetField@OGRFeature@@QEAAXPEBD0@Z
?SetField@OGRFeature@@QEAAXPEBDH@Z
?SetField@OGRFeature@@QEAAXPEBDHHHHHMH@Z
?SetField@OGRFeature@@QEAAXPEBDHPEBH@Z
?SetField@OGRFeature@@QEAAXPEBDHPEBN@Z
?SetField@OGRFeature@@QEAAXPEBDHPEB_J@Z
?SetField@OGRFeature@@QEAAXPEBDN@Z
?SetField@OGRFeature@@QEAAXPEBDPEBQEBD@Z
?SetField@OGRFeature@@QEAAXPEBDPEBTOGRField@@@Z
?SetField@OGRFeature@@QEAAXPEBD_J@Z
?SetFieldInternal@OGRFeature@@AEAA_NHPEBTOGRField@@@Z
?SetFieldNull@OGRFeature@@QEAAXH@Z
?SetFieldSameTypeUnsafe@OGRFeature@@QEAAXHH@Z
?SetFieldSameTypeUnsafe@OGRFeature@@QEAAXHN@Z
?SetFieldSameTypeUnsafe@OGRFeature@@QEAAXHPEAD@Z
?SetFieldSameTypeUnsafe@OGRFeature@@QEAAXH_J@Z
?SetFields@OGRUnionLayer@@QEAAXW4FieldUnionStrategy@@HPEAPEAVOGRFieldDefn@@HPEAPEAVOGRUnionLayerGeomFieldDefn@@@Z
?SetFieldsFrom@OGRFeature@@QEAAHPEBV1@PEBHH@Z
?SetFileMetadata@VSIFilesystemHandler@@UEAA_NPEBDPEBQEBD01@Z
?SetFloat@OGRArrowArrayHelper@@SAXPEAUArrowArray@@HM@Z
?SetFlushBlockErr@GDALRasterBand@@AEAAXW4CPLErr@@@Z
?SetFontName@OGRStyleLabel@@QEAAXPEBD@Z
?SetFontName@OGRStyleSymbol@@QEAAXPEBD@Z
?SetForColor@OGRStyleLabel@@QEAAXPEBD@Z
?SetForeColor@OGRStyleBrush@@QEAAXPEBD@Z
?SetForwardPathLabel@GDALRelationship@@QEAAXAEBV?$basic_string@DU?$char_traits@D@std@@V?$allocator@D@2@@std@@@Z
?SetFrom@OGRFeature@@QEAAHPEBV1@H@Z
?SetFrom@OGRFeature@@QEAAHPEBV1@PEBHH@Z
?SetFromUserInput@OGRSpatialReference@@QEAAHPEBD@Z
?SetFromUserInput@OGRSpatialReference@@QEAAHPEBDPEBQEBD@Z
?SetGCPs@GDALDataset@@QEAA?AW4CPLErr@@HPEBUGDAL_GCP@@PEBD@Z
?SetGCPs@GDALDataset@@UEAA?AW4CPLErr@@HPEBUGDAL_GCP@@PEBVOGRSpatialReference@@@Z
?SetGCPs@GDALJP2Metadata@@QEAAXHPEBUGDAL_GCP@@@Z
?SetGCPs@GDALPamDataset@@UEAA?AW4CPLErr@@HPEBUGDAL_GCP@@PEBVOGRSpatialReference@@@Z
?SetGCPs@GDALProxyDataset@@UEAA?AW4CPLErr@@HPEBUGDAL_GCP@@PEBVOGRSpatialReference@@@Z
?SetGCPs@MEMDataset@@UEAA?AW4CPLErr@@HPEBUGDAL_GCP@@PEBVOGRSpatialReference@@@Z
?SetGCPs@VRTDataset@@UEAA?AW4CPLErr@@HPEBUGDAL_GCP@@PEBVOGRSpatialReference@@@Z
?SetGEOS@OGRSpatialReference@@QEAAHNNNN@Z
?SetGH@OGRSpatialReference@@QEAAHNNN@Z
?SetGS@OGRSpatialReference@@QEAAHNNN@Z
?SetGaussSchreiberTMercator@OGRSpatialReference@@QEAAHNNNNN@Z
?SetGeoTransform@GDALDataset@@UEAA?AW4CPLErr@@PEAN@Z
?SetGeoTransform@GDALJP2Metadata@@QEAAXPEAN@Z
?SetGeoTransform@GDALPamDataset@@UEAA?AW4CPLErr@@PEAN@Z
?SetGeoTransform@GDALProxyDataset@@UEAA?AW4CPLErr@@PEAN@Z
?SetGeoTransform@GDALProxyPoolDataset@@UEAA?AW4CPLErr@@PEAN@Z
?SetGeoTransform@MEMDataset@@UEAA?AW4CPLErr@@PEAN@Z
?SetGeoTransform@VRTDataset@@UEAA?AW4CPLErr@@PEAN@Z
?SetGeocCS@OGRSpatialReference@@QEAAHPEBD@Z
?SetGeogCS@OGRSpatialReference@@QEAAHPEBD00NN0N0N@Z
?SetGeomField@OGRFeature@@QEAAHHPEBVOGRGeometry@@@Z
?SetGeomFieldDirectly@OGRFeature@@QEAAHHPEAVOGRGeometry@@@Z
?SetGeomType@OGRFeatureDefn@@UEAAXW4OGRwkbGeometryType@@@Z
?SetGeometry@OGRFeature@@QEAAHPEBVOGRGeometry@@@Z
?SetGeometryDirectly@GMLFeature@@QEAAXHPEAUCPLXMLNode@@@Z
?SetGeometryDirectly@GMLFeature@@QEAAXPEAUCPLXMLNode@@@Z
?SetGeometryDirectly@OGRFeature@@QEAAHPEAVOGRGeometry@@@Z
?SetGeometryIgnored@OGRFeatureDefn@@UEAAXH@Z
?SetGlobalSRSName@IGMLReader@@UEAAXPEBD@Z
?SetGnomonic@OGRSpatialReference@@QEAAHNNNN@Z
?SetHOM2PNO@OGRSpatialReference@@QEAAHNNNNNNNN@Z
?SetHOM@OGRSpatialReference@@QEAAHNNNNNNN@Z
?SetHOMAC@OGRSpatialReference@@QEAAHNNNNNNN@Z
?SetIGH@OGRSpatialReference@@QEAAHXZ
?SetIWMPolyconic@OGRSpatialReference@@QEAAHNNNNN@Z
?SetId@OGRStyleBrush@@QEAAXPEBD@Z
?SetId@OGRStylePen@@QEAAXPEBD@Z
?SetId@OGRStyleSymbol@@QEAAXPEBD@Z
?SetIgnored@OGRFieldDefn@@QEAAXH@Z
?SetIgnored@OGRGeomFieldDefn@@QEAAXH@Z
?SetIgnoredFields@OGRLayer@@UEAAHPEAPEBD@Z
?SetIgnoredFields@OGRLayerDecorator@@UEAAHPEAPEBD@Z
?SetIgnoredFields@OGRMutexedLayer@@UEAAHPEAPEBD@Z
?SetIgnoredFields@OGRUnionLayer@@UEAAHPEAPEBD@Z
?SetIndentationSize@CPLJSonStreamingWriter@@QEAAXH@Z
?SetIndexingVariable@GDALDimension@@UEAA_NV?$shared_ptr@VGDALMDArray@@@std@@@Z
?SetIndexingVariable@GDALDimensionWeakIndexingVar@@UEAA_NV?$shared_ptr@VGDALMDArray@@@std@@@Z
?SetInt16@OGRArrowArrayHelper@@SAXPEAUArrowArray@@HF@Z
?SetInt32@OGRArrowArrayHelper@@SAXPEAUArrowArray@@HH@Z
?SetInt64@OGRArrowArrayHelper@@SAXPEAUArrowArray@@H_J@Z
?SetInt8@OGRArrowArrayHelper@@SAXPEAUArrowArray@@HC@Z
?SetInternalInputUnitFromParam@OGRStyleTool@@QEAAXPEAD@Z
?SetIsMaskBand@VRTRasterBand@@QEAAXXZ
?SetItalic@OGRStyleLabel@@QEAAXH@Z
?SetJoin@OGRStylePen@@QEAAXPEBD@Z
?SetJustify@OGRFieldDefn@@QEAAXW4OGRJustification@@@Z
?SetKrovak@OGRSpatialReference@@QEAAHNNNNNNN@Z
?SetLAEA@OGRSpatialReference@@QEAAHNNNN@Z
?SetLCC1SP@OGRSpatialReference@@QEAAHNNNNN@Z
?SetLCC@OGRSpatialReference@@QEAAHNNNNNN@Z
?SetLCCB@OGRSpatialReference@@QEAAHNNNNNN@Z
?SetLOM@OGRSpatialReference@@QEAAHNNNNNN@Z
?SetLastUsedLayer@OGRLayerPool@@QEAAXPEAVOGRAbstractProxiedLayer@@@Z
?SetLeftMappingTableFields@GDALRelationship@@QEAAXAEBV?$vector@V?$basic_string@DU?$char_traits@D@std@@V?$allocator@D@2@@std@@V?$allocator@V?$basic_string@DU?$char_traits@D@std@@V?$allocator@D@2@@std@@@2@@std@@@Z
?SetLeftTableFields@GDALRelationship@@QEAAXAEBV?$vector@V?$basic_string@DU?$char_traits@D@std@@V?$allocator@D@2@@std@@V?$allocator@V?$basic_string@DU?$char_traits@D@std@@V?$allocator@D@2@@std@@@2@@std@@@Z
?SetLimit@swq_select@@QEAAX_J@Z
?SetLinearBinning@GDALDefaultRasterAttributeTable@@UEAA?AW4CPLErr@@NN@Z
?SetLinearBinning@GDALRasterAttributeTable@@UEAA?AW4CPLErr@@NN@Z
?SetLinearScaling@VRTComplexSource@@QEAAXNN@Z
?SetLinearUnits@OGRSpatialReference@@QEAAHPEBDN@Z
?SetLinearUnitsAndUpdateParameters@OGRSpatialReference@@QEAAHPEBDN00@Z
?SetLocalCS@OGRSpatialReference@@QEAAHPEBD@Z
?SetMC@OGRSpatialReference@@QEAAHNNNN@Z
?SetMOFlags@GDALMajorObject@@QEAAXH@Z
?SetMappingTableName@GDALRelationship@@QEAAXAEBV?$basic_string@DU?$char_traits@D@std@@V?$allocator@D@2@@std@@@Z
?SetMaskBand@VRTDataset@@QEAAXPEAVVRTRasterBand@@@Z
?SetMaskBand@VRTRasterBand@@QEAAXPEAV1@@Z
?SetMaxDepth@CPLJSonStreamingParser@@QEAAX_K@Z
?SetMaxStringSize@CPLJSonStreamingParser@@QEAAX_K@Z
?SetMaxValue@VRTSimpleSource@@QEAAXH@Z
?SetMercator2SP@OGRSpatialReference@@QEAAHNNNNN@Z
?SetMercator@OGRSpatialReference@@QEAAHNNNNN@Z
?SetMergePolicy@OGRFieldDomain@@QEAAXW4OGRFieldDomainMergePolicy@@@Z
?SetMetadata@GDALGeorefPamDataset@@UEAA?AW4CPLErr@@PEAPEADPEBD@Z
?SetMetadata@GDALMajorObject@@UEAA?AW4CPLErr@@PEAPEADPEBD@Z
?SetMetadata@GDALMultiDomainMetadata@@QEAA?AW4CPLErr@@PEAPEADPEBD@Z
?SetMetadata@GDALPamDataset@@UEAA?AW4CPLErr@@PEAPEADPEBD@Z
?SetMetadata@GDALPamRasterBand@@UEAA?AW4CPLErr@@PEAPEADPEBD@Z
?SetMetadata@GDALProxyDataset@@UEAA?AW4CPLErr@@PEAPEADPEBD@Z
?SetMetadata@GDALProxyRasterBand@@UEAA?AW4CPLErr@@PEAPEADPEBD@Z
?SetMetadata@OGRLayerDecorator@@UEAA?AW4CPLErr@@PEAPEADPEBD@Z
?SetMetadata@OGRMutexedDataSource@@UEAA?AW4CPLErr@@PEAPEADPEBD@Z
?SetMetadata@OGRMutexedLayer@@UEAA?AW4CPLErr@@PEAPEADPEBD@Z
?SetMetadata@VRTDataset@@UEAA?AW4CPLErr@@PEAPEADPEBD@Z
?SetMetadata@VRTRasterBand@@UEAA?AW4CPLErr@@PEAPEADPEBD@Z
?SetMetadata@VRTSourcedRasterBand@@UEAA?AW4CPLErr@@PEAPEADPEBD@Z
?SetMetadataItem@GDALDriver@@UEAA?AW4CPLErr@@PEBD00@Z
?SetMetadataItem@GDALGeorefPamDataset@@UEAA?AW4CPLErr@@PEBD00@Z
?SetMetadataItem@GDALMajorObject@@UEAA?AW4CPLErr@@PEBD00@Z
?SetMetadataItem@GDALMultiDomainMetadata@@QEAA?AW4CPLErr@@PEBD00@Z
?SetMetadataItem@GDALPamDataset@@UEAA?AW4CPLErr@@PEBD00@Z
?SetMetadataItem@GDALPamRasterBand@@UEAA?AW4CPLErr@@PEBD00@Z
?SetMetadataItem@GDALProxyDataset@@UEAA?AW4CPLErr@@PEBD00@Z
?SetMetadataItem@GDALProxyRasterBand@@UEAA?AW4CPLErr@@PEBD00@Z
?SetMetadataItem@OGRLayerDecorator@@UEAA?AW4CPLErr@@PEBD00@Z
?SetMetadataItem@OGRMutexedDataSource@@UEAA?AW4CPLErr@@PEBD00@Z
?SetMetadataItem@OGRMutexedLayer@@UEAA?AW4CPLErr@@PEBD00@Z
?SetMetadataItem@VRTDataset@@UEAA?AW4CPLErr@@PEBD00@Z
?SetMetadataItem@VRTRasterBand@@UEAA?AW4CPLErr@@PEBD00@Z
?SetMetadataItem@VRTSourcedRasterBand@@UEAA?AW4CPLErr@@PEBD00@Z
?SetMetadataItem@VRTWarpedDataset@@UEAA?AW4CPLErr@@PEBD00@Z
?SetModified@MEMAbstractMDArray@@QEAAX_N@Z
?SetMollweide@OGRSpatialReference@@QEAAHNNN@Z
?SetNZMG@OGRSpatialReference@@QEAAHNNNN@Z
?SetName@GMLFeatureClass@@QEAAXPEBD@Z
?SetName@OGRFeatureDefn@@QEAAXPEBD@Z
?SetName@OGRFieldDefn@@QEAAXPEBD@Z
?SetName@OGRGeomFieldDefn@@QEAAXPEBD@Z
?SetNameValue@CPLStringList@@QEAAAEAV1@PEBD0@Z
?SetNativeData@OGRFeature@@QEAAXPEBD@Z
?SetNativeMediaType@OGRFeature@@QEAAXPEBD@Z
?SetNeedsFlush@VRTDataset@@QEAAXXZ
?SetNewline@CPLJSonStreamingWriter@@QEAAX_N@Z
?SetNextByIndex@OGREditableLayer@@UEAAH_J@Z
?SetNextByIndex@OGRLayer@@UEAAH_J@Z
?SetNextByIndex@OGRLayerDecorator@@UEAAH_J@Z
?SetNextByIndex@OGRMemLayer@@UEAAH_J@Z
?SetNextByIndex@OGRMutexedLayer@@UEAAH_J@Z
?SetNextFEIndex@S57Reader@@QEAAXHH@Z
?SetNextFID@OGREditableLayer@@QEAAX_J@Z
?SetNoDataValue@GDALMDArray@@QEAA_NH@Z
?SetNoDataValue@GDALMDArray@@QEAA_NN@Z
?SetNoDataValue@GDALMDArray@@QEAA_N_J@Z
?SetNoDataValue@GDALMDArray@@QEAA_N_K@Z
?SetNoDataValue@GDALPamRasterBand@@UEAA?AW4CPLErr@@N@Z
?SetNoDataValue@GDALProxyRasterBand@@UEAA?AW4CPLErr@@N@Z
?SetNoDataValue@GDALRasterBand@@UEAA?AW4CPLErr@@N@Z
?SetNoDataValue@VRTComplexSource@@QEAAXN@Z
?SetNoDataValue@VRTRasterBand@@UEAA?AW4CPLErr@@N@Z
?SetNoDataValueAsInt64@GDALPamRasterBand@@UEAA?AW4CPLErr@@_J@Z
?SetNoDataValueAsInt64@GDALRasterBand@@UEAA?AW4CPLErr@@_J@Z
?SetNoDataValueAsInt64@VRTRasterBand@@UEAA?AW4CPLErr@@_J@Z
?SetNoDataValueAsUInt64@GDALPamRasterBand@@UEAA?AW4CPLErr@@_K@Z
?SetNoDataValueAsUInt64@GDALRasterBand@@UEAA?AW4CPLErr@@_K@Z
?SetNoDataValueAsUInt64@VRTRasterBand@@UEAA?AW4CPLErr@@_K@Z
?SetNode@OGRSpatialReference@@QEAAHPEBD0@Z
?SetNode@OGRSpatialReference@@QEAAHPEBDN@Z
?SetNormProjParm@OGRSpatialReference@@QEAAHPEBDN@Z
?SetNull@CPLJSONObject@@QEAAXAEBV?$basic_string@DU?$char_traits@D@std@@V?$allocator@D@2@@std@@@Z
?SetNull@FieldValue@OGRFeature@@QEAAXXZ
?SetNull@OGRArrowArrayHelper@@QEAA_NHH@Z
?SetNullable@GMLPropertyDefn@@QEAAX_N@Z
?SetNullable@OGRFieldDefn@@QEAAXH@Z
?SetNullable@OGRGeomFieldDefn@@QEAAXH@Z
?SetOColor@OGRStyleSymbol@@QEAAXPEBD@Z
?SetOS@OGRSpatialReference@@QEAAHNNNNN@Z
?SetOffset@GDALJP2Box@@QEAAH_J@Z
?SetOffset@GDALMDArray@@UEAA_NNW4GDALDataType@@@Z
?SetOffset@GDALPamRasterBand@@UEAA?AW4CPLErr@@N@Z
?SetOffset@GDALProxyRasterBand@@UEAA?AW4CPLErr@@N@Z
?SetOffset@GDALRasterBand@@UEAA?AW4CPLErr@@N@Z
?SetOffset@OGRStyleSymbol@@QEAAXN@Z
?SetOffset@VRTRasterBand@@UEAA?AW4CPLErr@@N@Z
?SetOffset@swq_select@@QEAAX_J@Z
?SetOpenOptions@GDALProxyPoolDataset@@QEAAXPEBQEBD@Z
?SetOptions@S57Reader@@QEAA_NPEAPEAD@Z
?SetOrthographic@OGRSpatialReference@@QEAAHNNNN@Z
?SetOutlineColor@OGRStyleLabel@@QEAAXPEBD@Z
?SetPS@OGRSpatialReference@@QEAAHNNNNN@Z
?SetPamFlags@GDALPamDataset@@QEAAXH@Z
?SetParamDbl@OGRStyleBrush@@QEAAXW4ogr_style_tool_param_brush_id@@N@Z
?SetParamDbl@OGRStyleLabel@@QEAAXW4ogr_style_tool_param_label_id@@N@Z
?SetParamDbl@OGRStylePen@@QEAAXW4ogr_style_tool_param_pen_id@@N@Z
?SetParamDbl@OGRStyleSymbol@@QEAAXW4ogr_style_tool_param_symbol_id@@N@Z
?SetParamDbl@OGRStyleTool@@QEAAXAEBUogr_style_param@@AEAUogr_style_value@@N@Z
?SetParamNum@OGRStyleBrush@@QEAAXW4ogr_style_tool_param_brush_id@@H@Z
?SetParamNum@OGRStyleLabel@@QEAAXW4ogr_style_tool_param_label_id@@H@Z
?SetParamNum@OGRStylePen@@QEAAXW4ogr_style_tool_param_pen_id@@H@Z
?SetParamNum@OGRStyleSymbol@@QEAAXW4ogr_style_tool_param_symbol_id@@H@Z
?SetParamNum@OGRStyleTool@@QEAAXAEBUogr_style_param@@AEAUogr_style_value@@H@Z
?SetParamStr@OGRStyleBrush@@QEAAXW4ogr_style_tool_param_brush_id@@PEBD@Z
?SetParamStr@OGRStyleLabel@@QEAAXW4ogr_style_tool_param_label_id@@PEBD@Z
?SetParamStr@OGRStylePen@@QEAAXW4ogr_style_tool_param_pen_id@@PEBD@Z
?SetParamStr@OGRStyleSymbol@@QEAAXW4ogr_style_tool_param_symbol_id@@PEBD@Z
?SetParamStr@OGRStyleTool@@QEAAXAEBUogr_style_param@@AEAUogr_style_value@@PEBD@Z
?SetPattern@OGRStylePen@@QEAAXPEBD@Z
?SetPerp@OGRStyleLabel@@QEAAXN@Z
?SetPerp@OGRStyleSymbol@@QEAAXN@Z
?SetPerpendicularOffset@OGRStylePen@@QEAAXN@Z
?SetPhysicalFilename@GDALPamDataset@@IEAAXPEBD@Z
?SetPixelFunctionLanguage@VRTDerivedRasterBand@@QEAAXPEBD@Z
?SetPixelFunctionName@VRTDerivedRasterBand@@QEAAXPEBD@Z
?SetPlacement@OGRStyleLabel@@QEAAXPEBD@Z
?SetPolyconic@OGRSpatialReference@@QEAAHNNNN@Z
?SetPowerScaling@VRTComplexSource@@QEAAXNNNNN@Z
?SetPrecision@GMLPropertyDefn@@QEAAXH@Z
?SetPrecision@OGRFieldDefn@@QEAAXH@Z
?SetPreserveSrcFID@OGRUnionLayer@@QEAAXH@Z
?SetPrettyFormatting@CPLJSonStreamingWriter@@QEAAX_N@Z
?SetPriority@OGRStyleBrush@@QEAAXH@Z
?SetPriority@OGRStyleLabel@@QEAAXH@Z
?SetPriority@OGRStylePen@@QEAAXH@Z
?SetPriority@OGRStyleSymbol@@QEAAXH@Z
?SetProjCS@OGRSpatialReference@@QEAAHPEBD@Z
?SetProjParm@OGRSpatialReference@@QEAAHPEBDN@Z
?SetProjection@GDALDataset@@QEAA?AW4CPLErr@@PEBD@Z
?SetProjection@OGRSpatialReference@@QEAAHPEBD@Z
?SetPropertyDirectly@GMLFeature@@QEAAXHPEAD@Z
?SetQSC@OGRSpatialReference@@QEAAHNN@Z
?SetRPCMD@GDALJP2Metadata@@QEAAXPEAPEAD@Z
?SetRawLink@VRTRawRasterBand@@QEAA?AW4CPLErr@@PEBD0H_KHH0@Z
?SetRawNoDataValue@GDALMDArray@@UEAA_NPEBX@Z
?SetRelatedTableType@GDALRelationship@@QEAAXAEBV?$basic_string@DU?$char_traits@D@std@@V?$allocator@D@2@@std@@@Z
?SetResampling@VRTSimpleSource@@QEAAXPEBD@Z
?SetRightMappingTableFields@GDALRelationship@@QEAAXAEBV?$vector@V?$basic_string@DU?$char_traits@D@std@@V?$allocator@D@2@@std@@V?$allocator@V?$basic_string@DU?$char_traits@D@std@@V?$allocator@D@2@@std@@@2@@std@@@Z
?SetRightTableFields@GDALRelationship@@QEAAXAEBV?$vector@V?$basic_string@DU?$char_traits@D@std@@V?$allocator@D@2@@std@@V?$allocator@V?$basic_string@DU?$char_traits@D@std@@V?$allocator@D@2@@std@@@2@@std@@@Z
?SetRobinson@OGRSpatialReference@@QEAAHNNN@Z
?SetRoot@CPLJSONDocument@@QEAAXAEBVCPLJSONObject@@@Z
?SetRoot@OGRSpatialReference@@QEAAXPEAVOGR_SRSNode@@@Z
?SetRowCount@GDALDefaultRasterAttributeTable@@UEAAXH@Z
?SetRowCount@GDALRasterAttributeTable@@UEAAXH@Z
?SetSCH@OGRSpatialReference@@QEAAHNNNN@Z
?SetSOC@OGRSpatialReference@@QEAAHNNNN@Z
?SetSRSName@GMLFeatureClass@@QEAAXPEBD@Z
?SetSRSName@GMLGeometryPropertyDefn@@QEAAXAEBV?$basic_string@DU?$char_traits@D@std@@V?$allocator@D@2@@std@@@Z
?SetScale@GDALMDArray@@UEAA_NNW4GDALDataType@@@Z
?SetScale@GDALPamRasterBand@@UEAA?AW4CPLErr@@N@Z
?SetScale@GDALProxyRasterBand@@UEAA?AW4CPLErr@@N@Z
?SetScale@GDALRasterBand@@UEAA?AW4CPLErr@@N@Z
?SetScale@VRTRasterBand@@UEAA?AW4CPLErr@@N@Z
?SetSchemaLocked@GMLFeatureClass@@QEAAX_N@Z
?SetSelf@GDALAbstractMDArray@@IEAAXV?$weak_ptr@VGDALAbstractMDArray@@@std@@@Z
?SetShadowColor@OGRStyleLabel@@QEAAXPEBD@Z
?SetSinusoidal@OGRSpatialReference@@QEAAHNNN@Z
?SetSize@OGRStyleBrush@@QEAAXN@Z
?SetSize@OGRStyleLabel@@QEAAXN@Z
?SetSize@OGRStyleSymbol@@QEAAXN@Z
?SetSourceCenterLong@OGRCoordinateTransformationOptions@@QEAAXN@Z
?SetSourceLayerFieldName@OGRUnionLayer@@QEAAXPEBD@Z
?SetSourceTransferType@VRTDerivedRasterBand@@QEAAXW4GDALDataType@@@Z
?SetSpacingX@OGRStyleBrush@@QEAAXN@Z
?SetSpacingX@OGRStyleLabel@@QEAAXN@Z
?SetSpacingX@OGRStyleSymbol@@QEAAXN@Z
?SetSpacingY@OGRStyleBrush@@QEAAXN@Z
?SetSpacingY@OGRStyleLabel@@QEAAXN@Z
?SetSpacingY@OGRStyleSymbol@@QEAAXN@Z
?SetSpatialFilter@OGREditableLayer@@UEAAXHPEAVOGRGeometry@@@Z
?SetSpatialFilter@OGREditableLayer@@UEAAXPEAVOGRGeometry@@@Z
?SetSpatialFilter@OGRLayer@@UEAAXHPEAVOGRGeometry@@@Z
?SetSpatialFilter@OGRLayer@@UEAAXPEAVOGRGeometry@@@Z
?SetSpatialFilter@OGRLayerDecorator@@UEAAXHPEAVOGRGeometry@@@Z
?SetSpatialFilter@OGRLayerDecorator@@UEAAXPEAVOGRGeometry@@@Z
?SetSpatialFilter@OGRMutexedLayer@@UEAAXHPEAVOGRGeometry@@@Z
?SetSpatialFilter@OGRMutexedLayer@@UEAAXPEAVOGRGeometry@@@Z
?SetSpatialFilter@OGRUnionLayer@@UEAAXHPEAVOGRGeometry@@@Z
?SetSpatialFilter@OGRUnionLayer@@UEAAXPEAVOGRGeometry@@@Z
?SetSpatialFilterRect@OGREditableLayer@@UEAAXHNNNN@Z
?SetSpatialFilterRect@OGREditableLayer@@UEAAXNNNN@Z
?SetSpatialFilterRect@OGRLayer@@UEAAXHNNNN@Z
?SetSpatialFilterRect@OGRLayer@@UEAAXNNNN@Z
?SetSpatialFilterRect@OGRLayerDecorator@@UEAAXHNNNN@Z
?SetSpatialFilterRect@OGRLayerDecorator@@UEAAXNNNN@Z
?SetSpatialFilterRect@OGRMutexedLayer@@UEAAXHNNNN@Z
?SetSpatialFilterRect@OGRMutexedLayer@@UEAAXNNNN@Z
?SetSpatialFilterToSourceLayer@OGRUnionLayer@@IEAAXPEAVOGRLayer@@@Z
?SetSpatialRef@GDALDataset@@UEAA?AW4CPLErr@@PEBVOGRSpatialReference@@@Z
?SetSpatialRef@GDALJP2Metadata@@QEAAXPEBVOGRSpatialReference@@@Z
?SetSpatialRef@GDALMDArray@@UEAA_NPEBVOGRSpatialReference@@@Z
?SetSpatialRef@GDALPamDataset@@UEAA?AW4CPLErr@@PEBVOGRSpatialReference@@@Z
?SetSpatialRef@GDALPamMDArray@@UEAA_NPEBVOGRSpatialReference@@@Z
?SetSpatialRef@GDALPamMultiDim@@QEAAXAEBV?$basic_string@DU?$char_traits@D@std@@V?$allocator@D@2@@std@@PEBVOGRSpatialReference@@@Z
?SetSpatialRef@GDALProxyDataset@@UEAA?AW4CPLErr@@PEBVOGRSpatialReference@@@Z
?SetSpatialRef@GDALProxyPoolDataset@@UEAA?AW4CPLErr@@PEBVOGRSpatialReference@@@Z
?SetSpatialRef@MEMDataset@@UEAA?AW4CPLErr@@PEBVOGRSpatialReference@@@Z
?SetSpatialRef@OGRGeomFieldDefn@@QEAAXPEAVOGRSpatialReference@@@Z
?SetSpatialRef@VRTDataset@@UEAA?AW4CPLErr@@PEBVOGRSpatialReference@@@Z
?SetSplitPolicy@OGRFieldDomain@@QEAAXW4OGRFieldDomainSplitPolicy@@@Z
?SetSrcBand@VRTSimpleSource@@QEAAXPEAVGDALRasterBand@@@Z
?SetSrcBand@VRTSimpleSource@@QEAAXPEBDH@Z
?SetSrcElement@GMLPropertyDefn@@QEAAXPEBD@Z
?SetSrcMaskBand@VRTSimpleSource@@QEAAXPEAVGDALRasterBand@@@Z
?SetSrcWindow@VRTSimpleSource@@QEAAXNNNN@Z
?SetStatePlane@OGRSpatialReference@@QEAAHHHPEBDN@Z
?SetStatistics@GDALMDArray@@MEAA_N_NNNNN_K@Z
?SetStatistics@GDALPamMDArray@@MEAA_N_NNNNN_K@Z
?SetStatistics@GDALPamMultiDim@@QEAAXAEBV?$basic_string@DU?$char_traits@D@std@@V?$allocator@D@2@@std@@_NNNNN_K@Z
?SetStatistics@GDALProxyRasterBand@@UEAA?AW4CPLErr@@NNNN@Z
?SetStatistics@GDALRasterBand@@UEAA?AW4CPLErr@@NNNN@Z
?SetStep@OGRStyleSymbol@@QEAAXN@Z
?SetStereographic@OGRSpatialReference@@QEAAHNNNNN@Z
?SetStretch@OGRStyleLabel@@QEAAXN@Z
?SetStrikeout@OGRStyleLabel@@QEAAXH@Z
?SetStripSurroundingQuotes@NASAKeywordHandler@@QEAAX_N@Z
?SetStyleIgnored@OGRFeatureDefn@@UEAAX_N@Z
?SetStyleString@OGRFeature@@UEAAXPEBD@Z
?SetStyleString@OGRStyleTool@@QEAAXPEBD@Z
?SetStyleStringDirectly@OGRFeature@@UEAAXPEAD@Z
?SetStyleTable@GDALDataset@@UEAAXPEAVOGRStyleTable@@@Z
?SetStyleTable@OGRFeature@@UEAAXPEAVOGRStyleTable@@@Z
?SetStyleTable@OGRLayer@@UEAAXPEAVOGRStyleTable@@@Z
?SetStyleTable@OGRLayerDecorator@@UEAAXPEAVOGRStyleTable@@@Z
?SetStyleTable@OGRMutexedDataSource@@UEAAXPEAVOGRStyleTable@@@Z
?SetStyleTable@OGRMutexedLayer@@UEAAXPEAVOGRStyleTable@@@Z
?SetStyleTableDirectly@GDALDataset@@UEAAXPEAVOGRStyleTable@@@Z
?SetStyleTableDirectly@OGRFeature@@UEAAXPEAVOGRStyleTable@@@Z
?SetStyleTableDirectly@OGRLayer@@UEAAXPEAVOGRStyleTable@@@Z
?SetStyleTableDirectly@OGRLayerDecorator@@UEAAXPEAVOGRStyleTable@@@Z
?SetStyleTableDirectly@OGRMutexedDataSource@@UEAAXPEAVOGRStyleTable@@@Z
?SetStyleTableDirectly@OGRMutexedLayer@@UEAAXPEAVOGRStyleTable@@@Z
?SetSubType@OGRFieldDefn@@QEAAXW4OGRFieldSubType@@@Z
?SetSubdatasetName@GDALPamDataset@@IEAAXPEBD@Z
?SetSupportsCreateGeomField@OGREditableLayer@@QEAAX_N@Z
?SetSupportsCurveGeometries@OGREditableLayer@@QEAAX_N@Z
?SetTM@OGRSpatialReference@@QEAAHNNNNN@Z
?SetTMG@OGRSpatialReference@@QEAAHNNNN@Z
?SetTMSO@OGRSpatialReference@@QEAAHNNNNN@Z
?SetTMVariant@OGRSpatialReference@@QEAAHPEBDNNNNN@Z
?SetTOWGS84@OGRSpatialReference@@QEAAHNNNNNNN@Z
?SetTPED@OGRSpatialReference@@QEAAHNNNNNN@Z
?SetTableType@GDALDefaultRasterAttributeTable@@UEAA?AW4CPLErr@@W4GDALRATTableType@@@Z
?SetTargetCenterLong@OGRCoordinateTransformationOptions@@QEAAXN@Z
?SetTargetLinearUnits@OGRSpatialReference@@QEAAHPEBD0N00@Z
?SetTextString@OGRStyleLabel@@QEAAXPEBD@Z
?SetType@GDALJP2Box@@QEAAXPEBD@Z
?SetType@GDALRelationship@@QEAAXW4GDALRelationshipType@@@Z
?SetType@GMLGeometryPropertyDefn@@QEAAXH@Z
?SetType@GMLPropertyDefn@@QEAAXW4GMLPropertyType@@@Z
?SetType@OGRFieldDefn@@QEAAXW4OGRFieldType@@@Z
?SetType@OGRGeomFieldDefn@@QEAAXW4OGRwkbGeometryType@@@Z
?SetUInt16@OGRArrowArrayHelper@@SAXPEAUArrowArray@@HG@Z
?SetUInt32@OGRArrowArrayHelper@@SAXPEAUArrowArray@@HI@Z
?SetUInt64@OGRArrowArrayHelper@@SAXPEAUArrowArray@@H_K@Z
?SetUInt8@OGRArrowArrayHelper@@SAXPEAUArrowArray@@HE@Z
?SetUTM@OGRSpatialReference@@QEAAHHH@Z
?SetUnderline@OGRStyleLabel@@QEAAXH@Z
?SetUnique@GMLPropertyDefn@@QEAAX_N@Z
?SetUnique@OGRFieldDefn@@QEAAXH@Z
?SetUnit@GDALMDArray@@UEAA_NAEBV?$basic_string@DU?$char_traits@D@std@@V?$allocator@D@2@@std@@@Z
?SetUnit@OGRStyleTool@@QEAAXW4ogr_style_tool_units_id@@N@Z
?SetUnitType@GDALPamRasterBand@@UEAA?AW4CPLErr@@PEBD@Z
?SetUnitType@GDALProxyRasterBand@@UEAA?AW4CPLErr@@PEBD@Z
?SetUnitType@GDALRasterBand@@UEAA?AW4CPLErr@@PEBD@Z
?SetUnitType@VRTRasterBand@@UEAA?AW4CPLErr@@PEBD@Z
?SetUpdatable@OGRMemLayer@@QEAAX_N@Z
?SetUpdated@OGRMemLayer@@QEAAX_N@Z
?SetUseMaskBand@VRTComplexSource@@QEAAX_N@Z
?SetVDG@OGRSpatialReference@@QEAAHNNN@Z
?SetValidPercent@GDALRasterBand@@IEAAX_K0@Z
?SetValue@GDALDefaultRasterAttributeTable@@UEAAXHHH@Z
?SetValue@GDALDefaultRasterAttributeTable@@UEAAXHHN@Z
?SetValue@GDALDefaultRasterAttributeTable@@UEAAXHHPEBD@Z
?SetValue@OGR_SRSNode@@QEAAXPEBD@Z
?SetVertCS@OGRSpatialReference@@QEAAHPEBD0H@Z
?SetVerticalPerspective@OGRSpatialReference@@QEAAHNNNNNN@Z
?SetWagner@OGRSpatialReference@@QEAAHHNNN@Z
?SetWellKnownGeogCS@OGRSpatialReference@@QEAAHPEBD@Z
?SetWidth@GMLPropertyDefn@@QEAAXH@Z
?SetWidth@OGRFieldDefn@@QEAAXH@Z
?SetWidth@OGRStylePen@@QEAAXN@Z
?SetWritable@MEMAbstractMDArray@@QEAAX_N@Z
?SetWritable@VRTDataset@@QEAAXH@Z
?SetWritableData@GDALJP2Box@@QEAAXHPEBE@Z
?Setup@CPLWorkerThreadPool@@QEAA_NHP6AXPEAX@ZPEAPEAX@Z
?Setup@CPLWorkerThreadPool@@QEAA_NHP6AXPEAX@ZPEAPEAX_N@Z
?ShadowColor@OGRStyleLabel@@QEAAPEBDAEAH@Z
?ShareLockWithParentDataset@GDALDataset@@IEAAXPEAV1@@Z
?Shrink@OGRArrowArrayHelper@@QEAAXH@Z
?SiblingFiles@VSIFilesystemHandler@@UEAAPEAPEADPEBD@Z
?Simplify@OGRGeometry@@UEBAPEAV1@N@Z
?SimplifyPreserveTopology@OGRGeometry@@QEBAPEAV1@N@Z
?Size@CPLJSONArray@@QEBAHXZ
?Size@OGRStyleBrush@@QEAANAEAH@Z
?Size@OGRStyleLabel@@QEAANAEAH@Z
?Size@OGRStyleSymbol@@QEAANAEAH@Z
?SkipBufferInitialization@VRTSourcedRasterBand@@IEAA_NXZ
?SkipSpace@CPLJSonStreamingParser@@AEAAXAEAPEBDAEA_K@Z
?SkipWhite@CPLKeywordParser@@AEAAXXZ
?SkipWhite@NASAKeywordHandler@@AEAAXXZ
?Sort@CPLStringList@@QEAAAEAV1@XZ
?Sort@DDFRecordIndex@@AEAAXXZ
?SpacingX@OGRStyleBrush@@QEAANAEAH@Z
?SpacingX@OGRStyleLabel@@QEAANAEAH@Z
?SpacingX@OGRStyleSymbol@@QEAANAEAH@Z
?SpacingY@OGRStyleBrush@@QEAANAEAH@Z
?SpacingY@OGRStyleLabel@@QEAANAEAH@Z
?SpacingY@OGRStyleSymbol@@QEAANAEAH@Z
?SrcToDst@VRTSimpleSource@@QEBAXNNAEAN0@Z
?StartArray@CPLJSonStreamingParser@@UEAAXXZ
?StartArray@CPLJSonStreamingWriter@@QEAAXXZ
?StartArrayMember@CPLJSonStreamingParser@@UEAAXXZ
?StartNewToken@CPLJSonStreamingParser@@AEAA_NAEAPEBDAEA_K@Z
?StartObj@CPLJSonStreamingWriter@@QEAAXXZ
?StartObject@CPLJSonStreamingParser@@UEAAXXZ
?StartObjectMember@CPLJSonStreamingParser@@UEAAXPEBD_K@Z
?StartPoint@OGRCompoundCurve@@UEBAXPEAVOGRPoint@@@Z
?StartPoint@OGRSimpleCurve@@UEBAXPEAVOGRPoint@@@Z
?StartTransaction@GDALDataset@@UEAAHH@Z
?StartTransaction@OGREditableLayer@@UEAAHXZ
?StartTransaction@OGRLayer@@UEAAHXZ
?StartTransaction@OGRLayerDecorator@@UEAAHXZ
?StartTransaction@OGRMutexedDataSource@@UEAAHH@Z
?StartTransaction@OGRMutexedLayer@@UEAAHXZ
?StaticGetArrowSchema@OGRLayer@@KAHPEAUArrowArrayStream@@PEAUArrowSchema@@@Z
?StaticGetNextArrowArray@OGRLayer@@KAHPEAUArrowArrayStream@@PEAUArrowArray@@@Z
?StealData@GDALRawResult@@QEAAPEAEXZ
?StealGeometry@OGRFeature@@QEAAPEAVOGRGeometry@@H@Z
?StealGeometry@OGRFeature@@QEAAPEAVOGRGeometry@@XZ
?StealGeometryProperties@GMLFeatureClass@@QEAAXXZ
?StealList@CPLStringList@@QEAAPEAPEADXZ
?StealProperties@GMLFeatureClass@@QEAAXXZ
?StealSiblingFiles@GDALOpenInfo@@QEAAPEAPEADXZ
?Step@OGRStyleSymbol@@QEAANAEAH@Z
?StoreNetworkSrs@GNMGenericNetwork@@MEAA?AW4CPLErr@@XZ
?StoreNoDataValue@RawRasterBand@@QEAAXN@Z
?Stretch@OGRStyleLabel@@QEAANAEAH@Z
?Strikeout@OGRStyleLabel@@QEAAHAEAH@Z
?String@CPLJSonStreamingParser@@UEAAXPEBD_K@Z
?StripNodes@OGR_SRSNode@@QEAAXPEBD@Z
?StripTOWGS84IfKnownDatum@OGRSpatialReference@@QEAA_NXZ
?StripTOWGS84IfKnownDatumAndAllowed@OGRSpatialReference@@QEAA_NXZ
?StripVertical@OGRSpatialReference@@QEAAHXZ
?StyleModified@OGRStyleTool@@QEAAXXZ
?StyleParsed@OGRStyleTool@@QEAAXXZ
?SubmitJob@CPLJobQueue@@QEAA_NP6AXPEAX@Z0@Z
?SubmitJob@CPLWorkerThreadPool@@QEAA_NP6AXPEAX@Z0@Z
?SubmitJobs@CPLWorkerThreadPool@@QEAA_NP6AXPEAX@ZAEBV?$vector@PEAXV?$allocator@PEAX@std@@@std@@@Z
?SupportsRandomWrite@VSIFilesystemHandler@@UEAA_NPEBD_N@Z
?SupportsRead@VSIFilesystemHandler@@UEAA_NPEBD@Z
?SupportsSequentialWrite@VSIFilesystemHandler@@UEAA_NPEBD_N@Z
?SupportsSparseFiles@VSIFilesystemHandler@@UEAAHPEBD@Z
?SymDifference@OGRGeometry@@UEBAPEAV1@PEBV1@@Z
?SymDifference@OGRLayer@@QEAAHPEAV1@0PEAPEADP6AHNPEBDPEAX@Z3@Z
?SymmetricDifference@OGRGeometry@@QEBAPEAV1@PEBV1@@Z
?Sync@VSIFilesystemHandler@@UEAA_NPEBD0PEBQEBDP6AHN0PEAX@Z2PEAPEAPEAD@Z
?SyncToDisk@OGREditableLayer@@UEAAHXZ
?SyncToDisk@OGRLayer@@UEAAHXZ
?SyncToDisk@OGRLayerDecorator@@UEAAHXZ
?SyncToDisk@OGRMutexedLayer@@UEAAHXZ
?SyncToDisk@OGRUnionLayer@@UEAAHXZ
?TakeLock@GDALRasterBlock@@QEAAHXZ
?TemporarilyDropReadWriteLock@GDALDataset@@IEAAXXZ
?TestCapability@GDALDataset@@UEAAHPEBD@Z
?TestCapability@GNMGenericNetwork@@UEAAHPEBD@Z
?TestCapability@OGREditableLayer@@UEAAHPEBD@Z
?TestCapability@OGRLayerDecorator@@UEAAHPEBD@Z
?TestCapability@OGRMemLayer@@UEAAHPEBD@Z
?TestCapability@OGRMutexedDataSource@@UEAAHPEBD@Z
?TestCapability@OGRMutexedLayer@@UEAAHPEBD@Z
?TestCapability@OGRUnionLayer@@UEAAHPEBD@Z
?TextString@OGRStyleLabel@@QEAAPEBDAEAH@Z
?ToArray@CPLJSONObject@@QEBA?AVCPLJSONArray@@XZ
?ToBool@CPLJSONObject@@QEBA_N_N@Z
?ToDouble@CPLJSONObject@@QEBANN@Z
?ToHandle@GDALColorTable@@SAPEAXPEAV1@@Z
?ToHandle@GDALDataset@@SAPEAXPEAV1@@Z
?ToHandle@GDALDriver@@SAPEAXPEAV1@@Z
?ToHandle@GDALMajorObject@@SAPEAXPEAV1@@Z
?ToHandle@GDALRasterAttributeTable@@SAPEAXPEAV1@@Z
?ToHandle@GDALRasterBand@@SAPEAXPEAV1@@Z
?ToHandle@GDALRelationship@@SAPEAXPEAV1@@Z
?ToHandle@OGRCoordinateTransformation@@SAPEAXPEAV1@@Z
?ToHandle@OGRFeature@@SAPEAXPEAV1@@Z
?ToHandle@OGRFeatureDefn@@SAPEAXPEAV1@@Z
?ToHandle@OGRFieldDefn@@SAPEAXPEAV1@@Z
?ToHandle@OGRFieldDomain@@SAPEAUOGRFieldDomainHS@@PEAV1@@Z
?ToHandle@OGRGeomFieldDefn@@SAPEAUOGRGeomFieldDefnHS@@PEAV1@@Z
?ToHandle@OGRGeometry@@SAPEAXPEAV1@@Z
?ToHandle@OGRLayer@@SAPEAXPEAV1@@Z
?ToHandle@OGRSpatialReference@@SAPEAXPEAV1@@Z
?ToInteger@CPLJSONObject@@QEBAHH@Z
?ToLong@CPLJSONObject@@QEBA_J_J@Z
?ToString@CPLJSONObject@@QEBA?AV?$basic_string@DU?$char_traits@D@std@@V?$allocator@D@2@@std@@AEBV23@@Z
?Touch@GDALRasterBlock@@QEAAXXZ
?Touch_unlocked@GDALRasterBlock@@AEAAXXZ
?Touches@OGRGeometry@@UEBAHPEBV1@@Z
?TraceTargets@GNMGraph@@MEAAXAEAV?$queue@_JV?$deque@_JV?$allocator@_J@std@@@std@@@std@@AEAV?$set@_JU?$less@_J@std@@V?$allocator@_J@2@@3@AEAV?$vector@U?$pair@_J_J@std@@V?$allocator@U?$pair@_J_J@std@@@2@@3@@Z
?TransferMembersAndDestroy@OGRGeometryCollection@@KAPEAV1@PEAV1@0@Z
?TransferMembersAndDestroy@OGRLineString@@KAPEAV1@PEAV1@0@Z
?TransferSiblingFiles@GDALDefaultOverviews@@QEAAXPEAPEAD@Z
?Transform@OGRCoordinateTransformation@@QEAAHHPEAN00PEAH@Z
?TransformBounds@OGRCoordinateTransformation@@UEAAHNNNNPEAN000H@Z
?TransformWithErrorCodes@OGRCoordinateTransformation@@UEAAHHPEAN000PEAH@Z
?Translate@OGREditableLayer@@IEAAPEAVOGRFeature@@PEAVOGRFeatureDefn@@PEAV2@_N2@Z
?TranslateFromSrcLayer@OGRUnionLayer@@IEAAPEAVOGRFeature@@PEAV2@@Z
?TranslateToColorTable@GDALRasterAttributeTable@@UEAAPEAVGDALColorTable@@H@Z
?Transpose@GDALMDArray@@UEBA?AV?$shared_ptr@VGDALMDArray@@@std@@AEBV?$vector@HV?$allocator@H@std@@@3@@Z
?Trim@CPLString@@QEAAAEAV1@XZ
?Truncate@VSIVirtualHandle@@UEAAH_K@Z
?TryGetLockedBlockRef@GDALRasterBand@@QEAAPEAVGDALRasterBlock@@HH@Z
?TryLoadAux@GDALPamDataset@@IEAA?AW4CPLErr@@PEAPEAD@Z
?TryLoadXML@GDALGeorefPamDataset@@UEAA?AW4CPLErr@@PEAPEAD@Z
?TryLoadXML@GDALPamDataset@@MEAA?AW4CPLErr@@PEAPEAD@Z
?TryOverviewRasterIO@GDALDataset@@IEAA?AW4CPLErr@@W4GDALRWFlag@@HHHHPEAXHHW4GDALDataType@@HPEAH_J44PEAUGDALRasterIOExtraArg@@3@Z
?TryOverviewRasterIO@GDALRasterBand@@IEAA?AW4CPLErr@@W4GDALRWFlag@@HHHHPEAXHHW4GDALDataType@@_J3PEAUGDALRasterIOExtraArg@@PEAH@Z
?TrySaveXML@GDALPamDataset@@MEAA?AW4CPLErr@@XZ
?TryToIngest@GDALOpenInfo@@QEAAHH@Z
?UnchainLayer@OGRLayerPool@@QEAAXPEAVOGRAbstractProxiedLayer@@@Z
?Underline@OGRStyleLabel@@QEAAHAEAH@Z
?Union@OGRGeometry@@UEBAPEAV1@PEBV1@@Z
?Union@OGRLayer@@QEAAHPEAV1@0PEAPEADP6AHNPEBDPEAX@Z3@Z
?UnionCascaded@OGRGeometry@@UEBAPEAV1@XZ
?Unlink@VSIFilesystemHandler@@UEAAHPEBD@Z
?UnlinkBatch@VSIFilesystemHandler@@UEAAPEAHPEBQEBD@Z
?UnlockBuffer@GDALAsyncReader@@UEAAXXZ
?Unparse@swq_expr_node@@QEAAPEADPEAVswq_field_list@@D@Z
?Unparse@swq_select@@QEAAPEADXZ
?UnparseOperationFromUnparsedSubExpr@swq_expr_node@@QEAA?AVCPLString@@PEAPEAD@Z
?UnrefUnderlyingDataset@GDALProxyDataset@@MEBAXPEAVGDALDataset@@@Z
?UnrefUnderlyingDataset@GDALProxyPoolDataset@@MEBAXPEAVGDALDataset@@@Z
?UnrefUnderlyingRasterBand@GDALProxyPoolRasterBand@@MEBAXPEAVGDALRasterBand@@@Z
?UnrefUnderlyingRasterBand@GDALProxyRasterBand@@MEBAXPEAVGDALRasterBand@@@Z
?UnreferenceBlock@GDALRasterBand@@AEAA?AW4CPLErr@@PEAVGDALRasterBlock@@@Z
?Unset@FieldValue@OGRFeature@@QEAAXXZ
?UnsetField@OGRFeature@@QEAAXH@Z
?UnsetNoDataValue@VRTRasterBand@@QEAA?AW4CPLErr@@XZ
?UnsetPreservedRelativeFilenames@VRTDataset@@QEAAXXZ
?UnsetPreservedRelativeFilenames@VRTSimpleSource@@QEAAXXZ
?Update@OGRLayer@@QEAAHPEAV1@0PEAPEADP6AHNPEBDPEAX@Z3@Z
?UpdateCoordinateSystemFromGeogCRS@OGRSpatialReference@@QEAAXXZ
?UpdateFieldDomain@GDALDataset@@UEAA_N$$QEAV?$unique_ptr@VOGRFieldDomain@@U?$default_delete@VOGRFieldDomain@@@std@@@std@@AEAV?$basic_string@DU?$char_traits@D@std@@V?$allocator@D@2@@3@@Z
?UpdateFieldDomain@OGRMutexedDataSource@@UEAA_N$$QEAV?$unique_ptr@VOGRFieldDomain@@U?$default_delete@VOGRFieldDomain@@@std@@@std@@AEAV?$basic_string@DU?$char_traits@D@std@@V?$allocator@D@2@@3@@Z
?UpdateRelationship@GDALDataset@@UEAA_N$$QEAV?$unique_ptr@VGDALRelationship@@U?$default_delete@VGDALRelationship@@@std@@@std@@AEAV?$basic_string@DU?$char_traits@D@std@@V?$allocator@D@2@@3@@Z
?UpsertFeature@OGRLayer@@QEAAHPEAVOGRFeature@@@Z
?VSICreateBufferedReaderHandle@@YAPEAVVSIVirtualHandle@@PEAV1@@Z
?VSICreateCachedFile@@YAPEAVVSIVirtualHandle@@PEAV1@_K1@Z
?VSICreateGZipWritable@@YAPEAVVSIVirtualHandle@@PEAV1@HH@Z
?VSI_TIFFOpen@@YAPEAUtiff@@PEBD0PEAU_iobuf@@@Z
?Validate@GDALWarpKernel@@QEAA?AW4CPLErr@@XZ
?Validate@OGRFeature@@QEBAHHH@Z
?Validate@OGRSpatialReference@@QEBAHXZ
?ValidateLayerCreationOptions@GDALDataset@@IEAAHPEBQEBD@Z
?ValidateOpenedBand@VRTSimpleSource@@MEBA_NPEAVGDALRasterBand@@@Z
?ValidateOptions@GDALWarpOperation@@AEAAHXZ
?ValidateRasterIOOrAdviseReadParameters@GDALDataset@@IEAA?AW4CPLErr@@PEBDPEAHHHHHHHH1@Z
?Value@OGRCircularString@@UEBAXNPEAVOGRPoint@@@Z
?Value@OGRCompoundCurve@@UEBAXNPEAVOGRPoint@@@Z
?Value@OGRSimpleCurve@@UEBAXNPEAVOGRPoint@@@Z
?ValuesIO@GDALRasterAttributeTable@@UEAA?AW4CPLErr@@W4GDALRWFlag@@HHHPEAH@Z
?ValuesIO@GDALRasterAttributeTable@@UEAA?AW4CPLErr@@W4GDALRWFlag@@HHHPEAN@Z
?ValuesIO@GDALRasterAttributeTable@@UEAA?AW4CPLErr@@W4GDALRWFlag@@HHHPEAPEAD@Z
?Verify@GDALRasterBlock@@SAXXZ
?WaitCompletion@CPLJobQueue@@QEAAXH@Z
?WaitCompletion@CPLWorkerThreadPool@@QEAAXH@Z
?WaitEvent@CPLWorkerThreadPool@@QEAAXXZ
?WarpRegion@GDALWarpOperation@@QEAA?AW4CPLErr@@HHHHHHHHNN@Z
?WarpRegion@GDALWarpOperation@@QEAA?AW4CPLErr@@HHHHHHHHNNNN@Z
?WarpRegionToBuffer@GDALWarpOperation@@QEAA?AW4CPLErr@@HHHHPEAXW4GDALDataType@@HHHHNN@Z
?WarpRegionToBuffer@GDALWarpOperation@@QEAA?AW4CPLErr@@HHHHPEAXW4GDALDataType@@HHHHNNNN@Z
?Width@OGRStylePen@@QEAANAEAH@Z
?WipeChunkList@GDALWarpOperation@@AEAAXXZ
?WipeOptions@GDALWarpOperation@@AEAAXXZ
?Within@OGRGeometry@@UEBAHPEBV1@@Z
?Within@OGRPoint@@UEBAHPEBVOGRGeometry@@@Z
?WkbSize@OGRCompoundCurve@@UEBA_KXZ
?WkbSize@OGRCurveCollection@@QEBA_KXZ
?WkbSize@OGRCurvePolygon@@UEBA_KXZ
?WkbSize@OGRGeometryCollection@@UEBA_KXZ
?WkbSize@OGRLinearRing@@EEBA_KXZ
?WkbSize@OGRPoint@@UEBA_KXZ
?WkbSize@OGRPolygon@@UEBA_KXZ
?WkbSize@OGRPolyhedralSurface@@UEBA_KXZ
?WkbSize@OGRSimpleCurve@@UEBA_KXZ
?WorkerThreadFunction@CPLWorkerThreadPool@@CAXPEAX@Z
?WrapLayerIfNecessary@OGRMutexedDataSource@@IEAAPEAVOGRLayer@@PEAV2@@Z
?Write@GDALAbstractMDArray@@QEAA_NPEB_K0PEB_J1AEBVGDALExtendedDataType@@PEBX3_K@Z
?Write@GDALAttribute@@QEAA_NN@Z
?Write@GDALAttribute@@QEAA_NPEBD@Z
?Write@GDALAttribute@@QEAA_NPEBN_K@Z
?Write@GDALAttribute@@QEAA_NPEBQEBD@Z
?Write@GDALAttribute@@QEAA_NPEBX_K@Z
?Write@GDALRasterBlock@@QEAA?AW4CPLErr@@XZ
?Write@RawRasterBand@@IEAA_KPEAX_K1@Z
?WriteATTF@S57Writer@@QEAA_NPEAVDDFRecord@@PEAVOGRFeature@@@Z
?WriteBlock@GDALRasterBand@@QEAA?AW4CPLErr@@HHPEAX@Z
?WriteCompleteFeature@S57Writer@@QEAA_NPEAVOGRFeature@@@Z
?WriteDSID@S57Writer@@QEAA_NHHPEBD00000H0HHHHHHHH@Z
?WriteDSPM@S57Writer@@QEAA_NHHHHHH@Z
?WriteGeometry@S57Writer@@QEAA_NPEAVDDFRecord@@HPEBN11@Z
?WriteInt@GDALAttribute@@QEAA_NH@Z
?WritePrimitive@S57Writer@@QEAA_NPEAVOGRFeature@@@Z
?XMLInit@GDALMultiDomainMetadata@@QEAAHPEAUCPLXMLNode@@H@Z
?XMLInit@GDALPamDataset@@MEAA?AW4CPLErr@@PEAUCPLXMLNode@@PEBD@Z
?XMLInit@GDALPamRasterBand@@MEAA?AW4CPLErr@@PEAUCPLXMLNode@@PEBD@Z
?XMLInit@GDALRasterAttributeTable@@UEAA?AW4CPLErr@@PEAUCPLXMLNode@@PEBD@Z
?XMLInit@VRTComplexSource@@UEAA?AW4CPLErr@@PEAUCPLXMLNode@@PEBDAEAV?$map@VCPLString@@PEAVGDALDataset@@U?$less@VCPLString@@@std@@V?$allocator@U?$pair@$$CBVCPLString@@PEAVGDALDataset@@@std@@@4@@std@@@Z
?XMLInit@VRTDataset@@UEAA?AW4CPLErr@@PEAUCPLXMLNode@@PEBD@Z
?XMLInit@VRTDerivedRasterBand@@UEAA?AW4CPLErr@@PEAUCPLXMLNode@@PEBDAEAV?$map@VCPLString@@PEAVGDALDataset@@U?$less@VCPLString@@@std@@V?$allocator@U?$pair@$$CBVCPLString@@PEAVGDALDataset@@@std@@@4@@std@@@Z
?XMLInit@VRTRasterBand@@UEAA?AW4CPLErr@@PEAUCPLXMLNode@@PEBDAEAV?$map@VCPLString@@PEAVGDALDataset@@U?$less@VCPLString@@@std@@V?$allocator@U?$pair@$$CBVCPLString@@PEAVGDALDataset@@@std@@@4@@std@@@Z
?XMLInit@VRTRawRasterBand@@UEAA?AW4CPLErr@@PEAUCPLXMLNode@@PEBDAEAV?$map@VCPLString@@PEAVGDALDataset@@U?$less@VCPLString@@@std@@V?$allocator@U?$pair@$$CBVCPLString@@PEAVGDALDataset@@@std@@@4@@std@@@Z
?XMLInit@VRTSimpleSource@@UEAA?AW4CPLErr@@PEAUCPLXMLNode@@PEBDAEAV?$map@VCPLString@@PEAVGDALDataset@@U?$less@VCPLString@@@std@@V?$allocator@U?$pair@$$CBVCPLString@@PEAVGDALDataset@@@std@@@4@@std@@@Z
?XMLInit@VRTSourcedRasterBand@@UEAA?AW4CPLErr@@PEAUCPLXMLNode@@PEBDAEAV?$map@VCPLString@@PEAVGDALDataset@@U?$less@VCPLString@@@std@@V?$allocator@U?$pair@$$CBVCPLString@@PEAVGDALDataset@@@std@@@4@@std@@@Z
?XMLInit@VRTWarpedDataset@@UEAA?AW4CPLErr@@PEAUCPLXMLNode@@PEBD@Z
?_Myptr@?$_Unique_ptr_base@UCPLXMLNode@@UCPLXMLTreeCloserDeleter@@@std@@QEAAAEAPEAUCPLXMLNode@@XZ
?_Myptr@?$_Unique_ptr_base@UCPLXMLNode@@UCPLXMLTreeCloserDeleter@@@std@@QEBAAEBQEAUCPLXMLNode@@XZ
?_WkbSize@OGRLinearRing@@MEBA_KH@Z
?_addGeometryDirectlyWithExpectedSubGeometryType@OGRMultiPolygon@@AEAAHPEAVOGRGeometry@@W4OGRwkbGeometryType@@@Z
?_addGeometryWithExpectedSubGeometryType@OGRMultiPolygon@@AEAAHPEBVOGRGeometry@@W4OGRwkbGeometryType@@@Z
?_exportToWkb@OGRLinearRing@@MEBAHW4OGRwkbByteOrder@@HPEAE@Z
?_importFromWkb@OGRLinearRing@@MEAAHW4OGRwkbByteOrder@@HPEBE_KAEA_K@Z
?_visit@OGRDefaultConstGeometryVisitor@@AEAAXPEBVOGRSimpleCurve@@@Z
?_visit@OGRDefaultGeometryVisitor@@AEAAXPEAVOGRSimpleCurve@@@Z
?abstract@TileMatrixSet@gdal@@QEBAAEBV?$basic_string@DU?$char_traits@D@std@@V?$allocator@D@2@@std@@XZ
?accept@OGRCircularString@@UEAAXPEAVIOGRGeometryVisitor@@@Z
?accept@OGRCircularString@@UEBAXPEAVIOGRConstGeometryVisitor@@@Z
?accept@OGRCompoundCurve@@UEAAXPEAVIOGRGeometryVisitor@@@Z
?accept@OGRCompoundCurve@@UEBAXPEAVIOGRConstGeometryVisitor@@@Z
?accept@OGRCurvePolygon@@UEAAXPEAVIOGRGeometryVisitor@@@Z
?accept@OGRCurvePolygon@@UEBAXPEAVIOGRConstGeometryVisitor@@@Z
?accept@OGRGeometryCollection@@UEAAXPEAVIOGRGeometryVisitor@@@Z
?accept@OGRGeometryCollection@@UEBAXPEAVIOGRConstGeometryVisitor@@@Z
?accept@OGRLineString@@UEAAXPEAVIOGRGeometryVisitor@@@Z
?accept@OGRLineString@@UEBAXPEAVIOGRConstGeometryVisitor@@@Z
?accept@OGRLinearRing@@UEAAXPEAVIOGRGeometryVisitor@@@Z
?accept@OGRLinearRing@@UEBAXPEAVIOGRConstGeometryVisitor@@@Z
?accept@OGRMultiCurve@@UEAAXPEAVIOGRGeometryVisitor@@@Z
?accept@OGRMultiCurve@@UEBAXPEAVIOGRConstGeometryVisitor@@@Z
?accept@OGRMultiLineString@@UEAAXPEAVIOGRGeometryVisitor@@@Z
?accept@OGRMultiLineString@@UEBAXPEAVIOGRConstGeometryVisitor@@@Z
?accept@OGRMultiPoint@@UEAAXPEAVIOGRGeometryVisitor@@@Z
?accept@OGRMultiPoint@@UEBAXPEAVIOGRConstGeometryVisitor@@@Z
?accept@OGRMultiPolygon@@UEAAXPEAVIOGRGeometryVisitor@@@Z
?accept@OGRMultiPolygon@@UEBAXPEAVIOGRConstGeometryVisitor@@@Z
?accept@OGRMultiSurface@@UEAAXPEAVIOGRGeometryVisitor@@@Z
?accept@OGRMultiSurface@@UEBAXPEAVIOGRConstGeometryVisitor@@@Z
?accept@OGRPoint@@UEAAXPEAVIOGRGeometryVisitor@@@Z
?accept@OGRPoint@@UEBAXPEAVIOGRConstGeometryVisitor@@@Z
?accept@OGRPolygon@@UEAAXPEAVIOGRGeometryVisitor@@@Z
?accept@OGRPolygon@@UEBAXPEAVIOGRConstGeometryVisitor@@@Z
?accept@OGRPolyhedralSurface@@UEAAXPEAVIOGRGeometryVisitor@@@Z
?accept@OGRPolyhedralSurface@@UEBAXPEAVIOGRConstGeometryVisitor@@@Z
?accept@OGRTriangle@@UEAAXPEAVIOGRGeometryVisitor@@@Z
?accept@OGRTriangle@@UEBAXPEAVIOGRConstGeometryVisitor@@@Z
?accept@OGRTriangulatedSurface@@UEAAXPEAVIOGRGeometryVisitor@@@Z
?accept@OGRTriangulatedSurface@@UEBAXPEAVIOGRConstGeometryVisitor@@@Z
?addCurve@OGRCompoundCurve@@QEAAHPEBVOGRCurve@@N@Z
?addCurveDirectly@OGRCompoundCurve@@QEAAHPEAVOGRCurve@@N@Z
?addCurveDirectly@OGRCurveCollection@@QEAAHPEAVOGRGeometry@@PEAVOGRCurve@@H@Z
?addCurveDirectlyFromWkb@OGRCompoundCurve@@CAHPEAVOGRGeometry@@PEAVOGRCurve@@@Z
?addCurveDirectlyFromWkb@OGRCurvePolygon@@CAHPEAVOGRGeometry@@PEAVOGRCurve@@@Z
?addCurveDirectlyFromWkt@OGRCompoundCurve@@CAHPEAVOGRGeometry@@PEAVOGRCurve@@@Z
?addCurveDirectlyFromWkt@OGRCurvePolygon@@CAHPEAVOGRGeometry@@PEAVOGRCurve@@@Z
?addCurveDirectlyFromWkt@OGRMultiCurve@@KAHPEAVOGRGeometry@@PEAVOGRCurve@@@Z
?addCurveDirectlyInternal@OGRCompoundCurve@@AEAAHPEAVOGRCurve@@NH@Z
?addGeometry@OGRGeometryCollection@@UEAAHPEBVOGRGeometry@@@Z
?addGeometry@OGRPolyhedralSurface@@UEAAHPEBVOGRGeometry@@@Z
?addGeometry@OGRTriangulatedSurface@@UEAAHPEBVOGRGeometry@@@Z
?addGeometryDirectly@OGRGeometryCollection@@UEAAHPEAVOGRGeometry@@@Z
?addGeometryDirectly@OGRPolyhedralSurface@@QEAAHPEAVOGRGeometry@@@Z
?addPoint@OGRSimpleCurve@@QEAAXNN@Z
?addPoint@OGRSimpleCurve@@QEAAXNNN@Z
?addPoint@OGRSimpleCurve@@QEAAXNNNN@Z
?addPoint@OGRSimpleCurve@@QEAAXPEBVOGRPoint@@@Z
?addPointM@OGRSimpleCurve@@QEAAXNNN@Z
?addRing@OGRCurvePolygon@@UEAAHPEAVOGRCurve@@@Z
?addRingDirectly@OGRCurvePolygon@@UEAAHPEAVOGRCurve@@@Z
?addRingDirectly@OGRTriangle@@UEAAHPEAVOGRCurve@@@Z
?addRingDirectlyInternal@OGRCurvePolygon@@AEAAHPEAVOGRCurve@@H@Z
?addSubLineString@OGRSimpleCurve@@QEAAXPEBVOGRLineString@@HH@Z
?approximateArcAngles@OGRGeometryFactory@@SAPEAVOGRGeometry@@NNNNNNNNN_N@Z
?assignSpatialReference@OGRCompoundCurve@@UEAAXPEAVOGRSpatialReference@@@Z
?assignSpatialReference@OGRCurveCollection@@QEAAXPEAVOGRGeometry@@PEAVOGRSpatialReference@@@Z
?assignSpatialReference@OGRCurvePolygon@@UEAAXPEAVOGRSpatialReference@@@Z
?assignSpatialReference@OGRGeometry@@UEAAXPEAVOGRSpatialReference@@@Z
?assignSpatialReference@OGRGeometryCollection@@UEAAXPEAVOGRSpatialReference@@@Z
?assignSpatialReference@OGRPolyhedralSurface@@UEAAXPEAVOGRSpatialReference@@@Z
?atInternal@GDALMDArray@@AEBA?AV?$shared_ptr@VGDALMDArray@@@std@@AEAV?$vector@_KV?$allocator@_K@std@@@3@@Z
?bGenerate_DB2_V72_BYTE_ORDER@OGRGeometry@@2HA
?bbox@TileMatrixSet@gdal@@QEBAAEBUBoundingBox@12@XZ
?begin@Bands@GDALDataset@@QEBA?BVIterator@12@XZ
?begin@CPLJSONArray@@QEBA?AVConstIterator@1@XZ
?begin@Features@GDALDataset@@QEBA?BVIterator@12@XZ
?begin@Layers@GDALDataset@@QEBA?AVIterator@12@XZ
?begin@OGRCompoundCurve@@QEAAPEAPEAVOGRCurve@@XZ
?begin@OGRCompoundCurve@@QEBAPEBQEBVOGRCurve@@XZ
?begin@OGRCurve@@QEBA?AVConstIterator@1@XZ
?begin@OGRCurveCollection@@QEAAPEAPEAVOGRCurve@@XZ
?begin@OGRCurveCollection@@QEBAPEBQEBVOGRCurve@@XZ
?begin@OGRCurvePolygon@@QEAAPEAPEAVOGRCurve@@XZ
?begin@OGRCurvePolygon@@QEBAPEBQEBVOGRCurve@@XZ
?begin@OGRFeature@@QEBA?AVConstFieldIterator@1@XZ
?begin@OGRGeometryCollection@@QEAAPEAPEAVOGRGeometry@@XZ
?begin@OGRGeometryCollection@@QEBAPEBQEBVOGRGeometry@@XZ
?begin@OGRLayer@@QEAA?AVFeatureIterator@1@XZ
?begin@OGRMultiCurve@@QEAAPEAPEAVOGRCurve@@XZ
?begin@OGRMultiCurve@@QEBAPEBQEBVOGRCurve@@XZ
?begin@OGRMultiLineString@@QEAAPEAPEAVOGRLineString@@XZ
?begin@OGRMultiLineString@@QEBAPEBQEBVOGRLineString@@XZ
?begin@OGRMultiPoint@@QEAAPEAPEAVOGRPoint@@XZ
?begin@OGRMultiPoint@@QEBAPEBQEBVOGRPoint@@XZ
?begin@OGRMultiPolygon@@QEAAPEAPEAVOGRPolygon@@XZ
?begin@OGRMultiPolygon@@QEBAPEBQEBVOGRPolygon@@XZ
?begin@OGRMultiSurface@@QEAAPEAPEAVOGRSurface@@XZ
?begin@OGRMultiSurface@@QEBAPEBQEBVOGRSurface@@XZ
?begin@OGRPolygon@@QEAAPEAPEAVOGRLinearRing@@XZ
?begin@OGRPolygon@@QEBAPEBQEBVOGRLinearRing@@XZ
?begin@OGRPolyhedralSurface@@QEAAPEAPEAVOGRPolygon@@XZ
?begin@OGRPolyhedralSurface@@QEBAPEBQEBVOGRPolygon@@XZ
?begin@OGRSimpleCurve@@QEAA?AVIterator@1@XZ
?begin@OGRSimpleCurve@@QEBA?AVConstIterator@1@XZ
?begin@OGRTriangulatedSurface@@QEAAPEAPEAVOGRTriangle@@XZ
?begin@OGRTriangulatedSurface@@QEBAPEBQEBVOGRTriangle@@XZ
?c_str@GNMRule@@QEBAPEBDXZ
?checkRing@OGRCurvePolygon@@EEBAHPEAVOGRCurve@@@Z
?checkRing@OGRPolygon@@MEBAHPEAVOGRCurve@@@Z
?clear@FieldValue@OGRFeature@@QEAAXXZ
?clone@OGRCircularString@@UEBAPEAV1@XZ
?clone@OGRCompoundCurve@@UEBAPEAV1@XZ
?clone@OGRCurvePolygon@@UEBAPEAV1@XZ
?clone@OGRGeometryCollection@@UEBAPEAV1@XZ
?clone@OGRLineString@@UEBAPEAV1@XZ
?clone@OGRLinearRing@@UEBAPEAV1@XZ
?clone@OGRMultiCurve@@UEBAPEAV1@XZ
?clone@OGRMultiLineString@@UEBAPEAV1@XZ
?clone@OGRMultiPoint@@UEBAPEAV1@XZ
?clone@OGRMultiPolygon@@UEBAPEAV1@XZ
?clone@OGRMultiSurface@@UEBAPEAV1@XZ
?clone@OGRPoint@@UEBAPEAV1@XZ
?clone@OGRPolygon@@UEBAPEAV1@XZ
?clone@OGRPolyhedralSurface@@UEBAPEAV1@XZ
?clone@OGRTriangle@@UEBAPEAV1@XZ
?clone@OGRTriangulatedSurface@@UEBAPEAV1@XZ
?closeRings@OGRGeometry@@UEAAXXZ
?closeRings@OGRGeometryCollection@@UEAAXXZ
?closeRings@OGRLinearRing@@UEAAXXZ
?closeRings@OGRPolygon@@UEAAXXZ
?convertToOtherProjection@OGRSpatialReference@@QEBAPEAV1@PEBDPEBQEBD@Z
?createFromFgf@OGRGeometryFactory@@SAHPEBXPEAVOGRSpatialReference@@PEAPEAVOGRGeometry@@HPEAH@Z
?createFromFgfInternal@OGRGeometryFactory@@CAHPEBEPEAVOGRSpatialReference@@PEAPEAVOGRGeometry@@HPEAHH@Z
?createFromGEOS@OGRGeometryFactory@@SAPEAVOGRGeometry@@PEAUGEOSContextHandle_HS@@PEAUGEOSGeom_t@@@Z
?createFromGML@OGRGeometryFactory@@SAPEAVOGRGeometry@@PEBD@Z
?createFromGeoJson@OGRGeometryFactory@@SAPEAVOGRGeometry@@AEBVCPLJSONObject@@@Z
?createFromGeoJson@OGRGeometryFactory@@SAPEAVOGRGeometry@@PEBDH@Z
?createFromWkb@OGRGeometryFactory@@SAHPEBXPEAVOGRSpatialReference@@PEAPEAVOGRGeometry@@_KW4OGRwkbVariant@@@Z
?createFromWkb@OGRGeometryFactory@@SAHPEBXPEAVOGRSpatialReference@@PEAPEAVOGRGeometry@@_KW4OGRwkbVariant@@AEA_K@Z
?createFromWkt@OGRGeometryFactory@@SAHPEAPEADPEAVOGRSpatialReference@@PEAPEAVOGRGeometry@@@Z
?createFromWkt@OGRGeometryFactory@@SAHPEAPEBDPEAVOGRSpatialReference@@PEAPEAVOGRGeometry@@@Z
?createFromWkt@OGRGeometryFactory@@SAHPEBDPEAVOGRSpatialReference@@PEAPEAVOGRGeometry@@@Z
?createGEOSContext@OGRGeometry@@SAPEAUGEOSContextHandle_HS@@XZ
?createGeometry@OGRGeometryFactory@@SAPEAVOGRGeometry@@W4OGRwkbGeometryType@@@Z
?createXYM@OGRPoint@@SAPEAV1@NNN@Z
?crs@TileMatrixSet@gdal@@QEBAAEBV?$basic_string@DU?$char_traits@D@std@@V?$allocator@D@2@@std@@XZ
?currentState@CPLJSonStreamingParser@@AEAA?AW4State@1@XZ
?curveFromLineString@OGRGeometryFactory@@SAPEAVOGRCurve@@PEBVOGRLineString@@PEBQEBD@Z
?curveToLineString@OGRGeometryFactory@@SAPEAVOGRLineString@@NNNNNNNNNHNPEBQEBD@Z
?data@GDALRawResult@@QEBAPEBEXZ
?defPrecision@?1???0OGRWktOptions@@QEAA@XZ@4HA
?defRound@?1???0OGRWktOptions@@QEAA@XZ@4_NA
?destroy@OGRPointIterator@@SAXPEAV1@@Z
?destroyGeometry@OGRGeometryFactory@@SAXPEAVOGRGeometry@@@Z
?dumpReadable@OGRGeometry@@UEBAXPEAU_iobuf@@PEBDPEAPEAD@Z
?dumpReadable@OGRSpatialReference@@QEAAXXZ
?empty@CPLStringList@@QEBA_NXZ
?empty@FieldValue@OGRFeature@@QEBA_NXZ
?empty@OGRCompoundCurve@@UEAAXXZ
?empty@OGRCurveCollection@@QEAAXPEAVOGRGeometry@@@Z
?empty@OGRCurvePolygon@@UEAAXXZ
?empty@OGRGeometryCollection@@UEAAXXZ
?empty@OGRPoint@@UEAAXXZ
?empty@OGRPolyhedralSurface@@UEAAXXZ
?empty@OGRSimpleCurve@@UEAAXXZ
?end@Bands@GDALDataset@@QEBA?BVIterator@12@XZ
?end@CPLJSONArray@@QEBA?AVConstIterator@1@XZ
?end@Features@GDALDataset@@QEBA?BVIterator@12@XZ
?end@Layers@GDALDataset@@QEBA?AVIterator@12@XZ
?end@OGRCompoundCurve@@QEAAPEAPEAVOGRCurve@@XZ
?end@OGRCompoundCurve@@QEBAPEBQEBVOGRCurve@@XZ
?end@OGRCurve@@QEBA?AVConstIterator@1@XZ
?end@OGRCurveCollection@@QEAAPEAPEAVOGRCurve@@XZ
?end@OGRCurveCollection@@QEBAPEBQEBVOGRCurve@@XZ
?end@OGRCurvePolygon@@QEAAPEAPEAVOGRCurve@@XZ
?end@OGRCurvePolygon@@QEBAPEBQEBVOGRCurve@@XZ
?end@OGRFeature@@QEBA?AVConstFieldIterator@1@XZ
?end@OGRGeometryCollection@@QEAAPEAPEAVOGRGeometry@@XZ
?end@OGRGeometryCollection@@QEBAPEBQEBVOGRGeometry@@XZ
?end@OGRLayer@@QEAA?AVFeatureIterator@1@XZ
?end@OGRMultiCurve@@QEAAPEAPEAVOGRCurve@@XZ
?end@OGRMultiCurve@@QEBAPEBQEBVOGRCurve@@XZ
?end@OGRMultiLineString@@QEAAPEAPEAVOGRLineString@@XZ
?end@OGRMultiLineString@@QEBAPEBQEBVOGRLineString@@XZ
?end@OGRMultiPoint@@QEAAPEAPEAVOGRPoint@@XZ
?end@OGRMultiPoint@@QEBAPEBQEBVOGRPoint@@XZ
?end@OGRMultiPolygon@@QEAAPEAPEAVOGRPolygon@@XZ
?end@OGRMultiPolygon@@QEBAPEBQEBVOGRPolygon@@XZ
?end@OGRMultiSurface@@QEAAPEAPEAVOGRSurface@@XZ
?end@OGRMultiSurface@@QEBAPEBQEBVOGRSurface@@XZ
?end@OGRPolygon@@QEAAPEAPEAVOGRLinearRing@@XZ
?end@OGRPolygon@@QEBAPEBQEBVOGRLinearRing@@XZ
?end@OGRPolyhedralSurface@@QEAAPEAPEAVOGRPolygon@@XZ
?end@OGRPolyhedralSurface@@QEBAPEBQEBVOGRPolygon@@XZ
?end@OGRSimpleCurve@@QEAA?AVIterator@1@XZ
?end@OGRSimpleCurve@@QEBA?AVConstIterator@1@XZ
?end@OGRTriangulatedSurface@@QEAAPEAPEAVOGRTriangle@@XZ
?end@OGRTriangulatedSurface@@QEBAPEBQEBVOGRTriangle@@XZ
?endsWith@CPLString@@QEBA_NAEBV?$basic_string@DU?$char_traits@D@std@@V?$allocator@D@2@@std@@@Z
?expand_wildcard@swq_select@@QEAA?AW4CPLErr@@PEAVswq_field_list@@H@Z
?exportToERM@OGRSpatialReference@@QEAAHPEAD00@Z
?exportToGEOS@OGRGeometry@@UEBAPEAUGEOSGeom_t@@PEAUGEOSContextHandle_HS@@@Z
?exportToGML@OGRGeometry@@UEBAPEADPEBQEBD@Z
?exportToJson@OGRGeometry@@UEBAPEADXZ
?exportToKML@OGRGeometry@@UEBAPEADXZ
?exportToMICoordSys@OGRSpatialReference@@QEBAHPEAPEAD@Z
?exportToPCI@OGRSpatialReference@@QEBAHPEAPEAD0PEAPEAN@Z
?exportToPROJJSON@OGRSpatialReference@@QEBAHPEAPEADPEBQEBD@Z
?exportToPanorama@OGRSpatialReference@@QEBAHPEAJ000PEAN@Z
?exportToPrettyWkt@OGRSpatialReference@@QEBAHPEAPEADH@Z
?exportToPrettyWkt@OGR_SRSNode@@QEBAHPEAPEADH@Z
?exportToProj4@OGRSpatialReference@@QEBAHPEAPEAD@Z
?exportToUSGS@OGRSpatialReference@@QEBAHPEAJ0PEAPEAN0@Z
?exportToWkb@OGRCircularString@@UEBAHW4OGRwkbByteOrder@@PEAEW4OGRwkbVariant@@@Z
?exportToWkb@OGRCompoundCurve@@UEBAHW4OGRwkbByteOrder@@PEAEW4OGRwkbVariant@@@Z
?exportToWkb@OGRCurveCollection@@QEBAHPEBVOGRGeometry@@W4OGRwkbByteOrder@@PEAEW4OGRwkbVariant@@@Z
?exportToWkb@OGRCurvePolygon@@UEBAHW4OGRwkbByteOrder@@PEAEW4OGRwkbVariant@@@Z
?exportToWkb@OGRGeometryCollection@@UEBAHW4OGRwkbByteOrder@@PEAEW4OGRwkbVariant@@@Z
?exportToWkb@OGRLinearRing@@EEBAHW4OGRwkbByteOrder@@PEAEW4OGRwkbVariant@@@Z
?exportToWkb@OGRPoint@@UEBAHW4OGRwkbByteOrder@@PEAEW4OGRwkbVariant@@@Z
?exportToWkb@OGRPolygon@@UEBAHW4OGRwkbByteOrder@@PEAEW4OGRwkbVariant@@@Z
?exportToWkb@OGRPolyhedralSurface@@UEBAHW4OGRwkbByteOrder@@PEAEW4OGRwkbVariant@@@Z
?exportToWkb@OGRSimpleCurve@@UEBAHW4OGRwkbByteOrder@@PEAEW4OGRwkbVariant@@@Z
?exportToWkt@OGRCircularString@@UEBA?AV?$basic_string@DU?$char_traits@D@std@@V?$allocator@D@2@@std@@AEBUOGRWktOptions@@PEAH@Z
?exportToWkt@OGRCompoundCurve@@UEBA?AV?$basic_string@DU?$char_traits@D@std@@V?$allocator@D@2@@std@@AEBUOGRWktOptions@@PEAH@Z
?exportToWkt@OGRCurveCollection@@QEBA?AV?$basic_string@DU?$char_traits@D@std@@V?$allocator@D@2@@std@@PEBVOGRGeometry@@AEBUOGRWktOptions@@PEAH@Z
?exportToWkt@OGRCurvePolygon@@UEBA?AV?$basic_string@DU?$char_traits@D@std@@V?$allocator@D@2@@std@@AEBUOGRWktOptions@@PEAH@Z
?exportToWkt@OGRGeometry@@QEBAHPEAPEADW4OGRwkbVariant@@@Z
?exportToWkt@OGRGeometryCollection@@UEBA?AV?$basic_string@DU?$char_traits@D@std@@V?$allocator@D@2@@std@@AEBUOGRWktOptions@@PEAH@Z
?exportToWkt@OGRMultiCurve@@UEBA?AV?$basic_string@DU?$char_traits@D@std@@V?$allocator@D@2@@std@@AEBUOGRWktOptions@@PEAH@Z
?exportToWkt@OGRMultiLineString@@UEBA?AV?$basic_string@DU?$char_traits@D@std@@V?$allocator@D@2@@std@@AEBUOGRWktOptions@@PEAH@Z
?exportToWkt@OGRMultiPoint@@UEBA?AV?$basic_string@DU?$char_traits@D@std@@V?$allocator@D@2@@std@@AEBUOGRWktOptions@@PEAH@Z
?exportToWkt@OGRMultiPolygon@@UEBA?AV?$basic_string@DU?$char_traits@D@std@@V?$allocator@D@2@@std@@AEBUOGRWktOptions@@PEAH@Z
?exportToWkt@OGRMultiSurface@@UEBA?AV?$basic_string@DU?$char_traits@D@std@@V?$allocator@D@2@@std@@AEBUOGRWktOptions@@PEAH@Z
?exportToWkt@OGRPoint@@UEBA?AV?$basic_string@DU?$char_traits@D@std@@V?$allocator@D@2@@std@@AEBUOGRWktOptions@@PEAH@Z
?exportToWkt@OGRPolygon@@UEBA?AV?$basic_string@DU?$char_traits@D@std@@V?$allocator@D@2@@std@@AEBUOGRWktOptions@@PEAH@Z
?exportToWkt@OGRPolyhedralSurface@@UEBA?AV?$basic_string@DU?$char_traits@D@std@@V?$allocator@D@2@@std@@AEBUOGRWktOptions@@PEAH@Z
?exportToWkt@OGRSimpleCurve@@UEBA?AV?$basic_string@DU?$char_traits@D@std@@V?$allocator@D@2@@std@@AEBUOGRWktOptions@@PEAH@Z
?exportToWkt@OGRSpatialReference@@QEBAHPEAPEAD@Z
?exportToWkt@OGRSpatialReference@@QEBAHPEAPEADPEBQEBD@Z
?exportToWkt@OGR_SRSNode@@QEBAHPEAPEAD@Z
?exportToWktInternal@OGRGeometryCollection@@IEBA?AV?$basic_string@DU?$char_traits@D@std@@V?$allocator@D@2@@std@@AEBUOGRWktOptions@@PEAHAEBV23@@Z
?exportToWktInternal@OGRPolyhedralSurface@@IEBA?AV?$basic_string@DU?$char_traits@D@std@@V?$allocator@D@2@@std@@AEBUOGRWktOptions@@PEAH@Z
?exportToXML@OGRSpatialReference@@QEBAHPEAPEADPEBD@Z
?flattenTo2D@OGRCompoundCurve@@UEAAXXZ
?flattenTo2D@OGRCurveCollection@@QEAAXPEAVOGRGeometry@@@Z
?flattenTo2D@OGRCurvePolygon@@UEAAXXZ
?flattenTo2D@OGRGeometryCollection@@UEAAXXZ
?flattenTo2D@OGRPoint@@UEAAXXZ
?flattenTo2D@OGRPolyhedralSurface@@UEAAXXZ
?flattenTo2D@OGRSimpleCurve@@UEAAXXZ
?forceTo@OGRGeometryFactory@@SAPEAVOGRGeometry@@PEAV2@W4OGRwkbGeometryType@@PEBQEBD@Z
?forceToLineString@OGRGeometryFactory@@SAPEAVOGRGeometry@@PEAV2@_N@Z
?forceToMultiLineString@OGRGeometryFactory@@SAPEAVOGRGeometry@@PEAV2@@Z
?forceToMultiPoint@OGRGeometryFactory@@SAPEAVOGRGeometry@@PEAV2@@Z
?forceToMultiPolygon@OGRGeometryFactory@@SAPEAVOGRGeometry@@PEAV2@@Z
?forceToPolygon@OGRGeometryFactory@@SAPEAVOGRGeometry@@PEAV2@@Z
?freeGEOSContext@OGRGeometry@@SAXPEAUGEOSContextHandle_HS@@@Z
?get@?$unique_ptr@UCPLXMLNode@@UCPLXMLTreeCloserDeleter@@@std@@QEBAPEAUCPLXMLNode@@XZ
?getBoundary@OGRGeometry@@QEBAPEAV1@XZ
?getCoordinateDimension@OGRGeometry@@UEBAHXZ
?getCurve@OGRCompoundCurve@@QEAAPEAVOGRCurve@@H@Z
?getCurve@OGRCompoundCurve@@QEBAPEBVOGRCurve@@H@Z
?getCurve@OGRCurveCollection@@QEAAPEAVOGRCurve@@H@Z
?getCurve@OGRCurveCollection@@QEBAPEBVOGRCurve@@H@Z
?getCurveGeometry@OGRGeometry@@UEBAPEAV1@PEBQEBD@Z
?getCurveGeometry@OGRGeometryCollection@@UEBAPEAVOGRGeometry@@PEBQEBD@Z
?getCurveGeometry@OGRLineString@@UEBAPEAVOGRGeometry@@PEBQEBD@Z
?getCurveGeometry@OGRPolygon@@UEBAPEAVOGRGeometry@@PEBQEBD@Z
?getDefaultPrecision@OGRWktOptions@@CAHXZ
?getDefaultRound@OGRWktOptions@@CA_NXZ
?getDimension@OGRCurve@@UEBAHXZ
?getDimension@OGRCurvePolygon@@UEBAHXZ
?getDimension@OGRGeometryCollection@@UEBAHXZ
?getDimension@OGRMultiCurve@@UEBAHXZ
?getDimension@OGRMultiPoint@@UEBAHXZ
?getDimension@OGRMultiSurface@@UEBAHXZ
?getDimension@OGRPoint@@UEBAHXZ
?getDimension@OGRPolyhedralSurface@@UEBAHXZ
?getDocumentElement@CPLXMLTreeCloser@@QEAAPEAUCPLXMLNode@@XZ
?getEnvelope@OGRCircularString@@UEBAXPEAVOGREnvelope3D@@@Z
?getEnvelope@OGRCircularString@@UEBAXPEAVOGREnvelope@@@Z
?getEnvelope@OGRCompoundCurve@@UEBAXPEAVOGREnvelope3D@@@Z
?getEnvelope@OGRCompoundCurve@@UEBAXPEAVOGREnvelope@@@Z
?getEnvelope@OGRCurveCollection@@QEBAXPEAVOGREnvelope3D@@@Z
?getEnvelope@OGRCurveCollection@@QEBAXPEAVOGREnvelope@@@Z
?getEnvelope@OGRCurvePolygon@@UEBAXPEAVOGREnvelope3D@@@Z
?getEnvelope@OGRCurvePolygon@@UEBAXPEAVOGREnvelope@@@Z
?getEnvelope@OGRGeometryCollection@@UEBAXPEAVOGREnvelope3D@@@Z
?getEnvelope@OGRGeometryCollection@@UEBAXPEAVOGREnvelope@@@Z
?getEnvelope@OGRPoint@@UEBAXPEAVOGREnvelope3D@@@Z
?getEnvelope@OGRPoint@@UEBAXPEAVOGREnvelope@@@Z
?getEnvelope@OGRPolyhedralSurface@@UEBAXPEAVOGREnvelope3D@@@Z
?getEnvelope@OGRPolyhedralSurface@@UEBAXPEAVOGREnvelope@@@Z
?getEnvelope@OGRSimpleCurve@@UEBAXPEAVOGREnvelope3D@@@Z
?getEnvelope@OGRSimpleCurve@@UEBAXPEAVOGREnvelope@@@Z
?getExteriorRing@OGRPolygon@@QEAAPEAVOGRLinearRing@@XZ
?getExteriorRing@OGRPolygon@@QEBAPEBVOGRLinearRing@@XZ
?getExteriorRingCurve@OGRCurvePolygon@@QEAAPEAVOGRCurve@@XZ
?getExteriorRingCurve@OGRCurvePolygon@@QEBAPEBVOGRCurve@@XZ
?getGeometryName@OGRCircularString@@UEBAPEBDXZ
?getGeometryName@OGRCompoundCurve@@UEBAPEBDXZ
?getGeometryName@OGRCurvePolygon@@UEBAPEBDXZ
?getGeometryName@OGRGeometryCollection@@UEBAPEBDXZ
?getGeometryName@OGRLineString@@UEBAPEBDXZ
?getGeometryName@OGRLinearRing@@UEBAPEBDXZ
?getGeometryName@OGRMultiCurve@@UEBAPEBDXZ
?getGeometryName@OGRMultiLineString@@UEBAPEBDXZ
?getGeometryName@OGRMultiPoint@@UEBAPEBDXZ
?getGeometryName@OGRMultiPolygon@@UEBAPEBDXZ
?getGeometryName@OGRMultiSurface@@UEBAPEBDXZ
?getGeometryName@OGRPoint@@UEBAPEBDXZ
?getGeometryName@OGRPolygon@@UEBAPEBDXZ
?getGeometryName@OGRPolyhedralSurface@@UEBAPEBDXZ
?getGeometryName@OGRTriangle@@UEBAPEBDXZ
?getGeometryName@OGRTriangulatedSurface@@UEBAPEBDXZ
?getGeometryRef@OGRGeometryCollection@@QEAAPEAVOGRGeometry@@H@Z
?getGeometryRef@OGRGeometryCollection@@QEBAPEBVOGRGeometry@@H@Z
?getGeometryRef@OGRMultiCurve@@QEAAPEAVOGRCurve@@H@Z
?getGeometryRef@OGRMultiCurve@@QEBAPEBVOGRCurve@@H@Z
?getGeometryRef@OGRMultiLineString@@QEAAPEAVOGRLineString@@H@Z
?getGeometryRef@OGRMultiLineString@@QEBAPEBVOGRLineString@@H@Z
?getGeometryRef@OGRMultiPoint@@QEAAPEAVOGRPoint@@H@Z
?getGeometryRef@OGRMultiPoint@@QEBAPEBVOGRPoint@@H@Z
?getGeometryRef@OGRMultiPolygon@@QEAAPEAVOGRPolygon@@H@Z
?getGeometryRef@OGRMultiPolygon@@QEBAPEBVOGRPolygon@@H@Z
?getGeometryRef@OGRMultiSurface@@QEAAPEAVOGRSurface@@H@Z
?getGeometryRef@OGRMultiSurface@@QEBAPEBVOGRSurface@@H@Z
?getGeometryRef@OGRPolyhedralSurface@@QEAAPEAVOGRPolygon@@H@Z
?getGeometryRef@OGRPolyhedralSurface@@QEBAPEBVOGRPolygon@@H@Z
?getGeometryRef@OGRTriangulatedSurface@@QEAAPEAVOGRTriangle@@H@Z
?getGeometryRef@OGRTriangulatedSurface@@QEBAPEBVOGRTriangle@@H@Z
?getGeometryType@OGRCircularString@@UEBA?AW4OGRwkbGeometryType@@XZ
?getGeometryType@OGRCompoundCurve@@UEBA?AW4OGRwkbGeometryType@@XZ
?getGeometryType@OGRCurvePolygon@@UEBA?AW4OGRwkbGeometryType@@XZ
?getGeometryType@OGRGeometryCollection@@UEBA?AW4OGRwkbGeometryType@@XZ
?getGeometryType@OGRLineString@@UEBA?AW4OGRwkbGeometryType@@XZ
?getGeometryType@OGRMultiCurve@@UEBA?AW4OGRwkbGeometryType@@XZ
?getGeometryType@OGRMultiLineString@@UEBA?AW4OGRwkbGeometryType@@XZ
?getGeometryType@OGRMultiPoint@@UEBA?AW4OGRwkbGeometryType@@XZ
?getGeometryType@OGRMultiPolygon@@UEBA?AW4OGRwkbGeometryType@@XZ
?getGeometryType@OGRMultiSurface@@UEBA?AW4OGRwkbGeometryType@@XZ
?getGeometryType@OGRPoint@@UEBA?AW4OGRwkbGeometryType@@XZ
?getGeometryType@OGRPolygon@@UEBA?AW4OGRwkbGeometryType@@XZ
?getGeometryType@OGRPolyhedralSurface@@UEBA?AW4OGRwkbGeometryType@@XZ
?getGeometryType@OGRTriangle@@UEBA?AW4OGRwkbGeometryType@@XZ
?getGeometryType@OGRTriangulatedSurface@@UEBA?AW4OGRwkbGeometryType@@XZ
?getInteriorRing@OGRPolygon@@UEAAPEAVOGRLinearRing@@H@Z
?getInteriorRing@OGRPolygon@@UEBAPEBVOGRLinearRing@@H@Z
?getInteriorRingCurve@OGRCurvePolygon@@QEAAPEAVOGRCurve@@H@Z
?getInteriorRingCurve@OGRCurvePolygon@@QEBAPEBVOGRCurve@@H@Z
?getIsoGeometryType@OGRGeometry@@QEBA?AW4OGRwkbGeometryType@@XZ
?getLinearGeometry@OGRCircularString@@UEBAPEAVOGRGeometry@@NPEBQEBD@Z
?getLinearGeometry@OGRCompoundCurve@@UEBAPEAVOGRGeometry@@NPEBQEBD@Z
?getLinearGeometry@OGRCurvePolygon@@UEBAPEAVOGRGeometry@@NPEBQEBD@Z
?getLinearGeometry@OGRGeometry@@UEBAPEAV1@NPEBQEBD@Z
?getLinearGeometry@OGRGeometryCollection@@UEBAPEAVOGRGeometry@@NPEBQEBD@Z
?getLinearGeometry@OGRPolygon@@UEBAPEAVOGRGeometry@@NPEBQEBD@Z
?getM@OGRPoint@@QEBANXZ
?getM@OGRSimpleCurve@@QEBANH@Z
?getNumCurves@OGRCompoundCurve@@QEBAHXZ
?getNumCurves@OGRCurveCollection@@QEBAHXZ
?getNumGeometries@OGRGeometryCollection@@QEBAHXZ
?getNumGeometries@OGRPolyhedralSurface@@QEBAHXZ
?getNumInteriorRings@OGRCurvePolygon@@QEBAHXZ
?getNumPoints@OGRCompoundCurve@@UEBAHXZ
?getNumPoints@OGRSimpleCurve@@UEBAHXZ
?getPoint@OGRSimpleCurve@@QEBAXHPEAVOGRPoint@@@Z
?getPointIterator@OGRCompoundCurve@@UEBAPEAVOGRPointIterator@@XZ
?getPointIterator@OGRSimpleCurve@@UEBAPEAVOGRPointIterator@@XZ
?getPoints@OGRSimpleCurve@@QEBAXPEAVOGRRawPoint@@PEAN@Z
?getPoints@OGRSimpleCurve@@QEBAXPEAXH0H0H0H@Z
?getSpatialReference@OGRGeometry@@QEBAPEAVOGRSpatialReference@@XZ
?getSubGeometryName@OGRPolyhedralSurface@@MEBAPEBDXZ
?getSubGeometryName@OGRTriangulatedSurface@@MEBAPEBDXZ
?getSubGeometryType@OGRPolyhedralSurface@@MEBA?AW4OGRwkbGeometryType@@XZ
?getSubGeometryType@OGRTriangulatedSurface@@MEBA?AW4OGRwkbGeometryType@@XZ
?getSubLine@OGRSimpleCurve@@UEBAPEAVOGRLineString@@NNH@Z
?getX@OGRPoint@@QEBANXZ
?getX@OGRSimpleCurve@@QEBANH@Z
?getY@OGRPoint@@QEBANXZ
?getY@OGRSimpleCurve@@QEBANH@Z
?getZ@OGRPoint@@QEBANXZ
?getZ@OGRSimpleCurve@@QEBANH@Z
?get_Area@OGRCircularString@@UEBANXZ
?get_Area@OGRCompoundCurve@@UEBANXZ
?get_Area@OGRCurvePolygon@@UEBANXZ
?get_Area@OGRGeometryCollection@@UEBANXZ
?get_Area@OGRLineString@@UEBANXZ
?get_Area@OGRPolyhedralSurface@@UEBANXZ
?get_AreaOfCurveSegments@OGRCircularString@@MEBANXZ
?get_AreaOfCurveSegments@OGRCompoundCurve@@UEBANXZ
?get_AreaOfCurveSegments@OGRLineString@@MEBANXZ
?get_IsClosed@OGRCurve@@UEBAHXZ
?get_Length@OGRCircularString@@UEBANXZ
?get_Length@OGRCompoundCurve@@UEBANXZ
?get_Length@OGRGeometryCollection@@UEBANXZ
?get_Length@OGRSimpleCurve@@UEBANXZ
?get_LinearArea@OGRSimpleCurve@@MEBANXZ
?get_deleter@?$_Unique_ptr_base@UCPLXMLNode@@UCPLXMLTreeCloserDeleter@@@std@@QEAAAEAUCPLXMLTreeCloserDeleter@@XZ
?get_deleter@?$_Unique_ptr_base@UCPLXMLNode@@UCPLXMLTreeCloserDeleter@@@std@@QEBAAEBUCPLXMLTreeCloserDeleter@@XZ
?hasCurveGeometry@OGRCircularString@@UEBAHH@Z
?hasCurveGeometry@OGRCompoundCurve@@UEBAHH@Z
?hasCurveGeometry@OGRCurveCollection@@QEBAHH@Z
?hasCurveGeometry@OGRCurvePolygon@@UEBAHH@Z
?hasCurveGeometry@OGRGeometry@@UEBAHH@Z
?hasCurveGeometry@OGRGeometryCollection@@UEBAHH@Z
?hasCurveGeometry@OGRMultiCurve@@UEBAHH@Z
?hasCurveGeometry@OGRMultiLineString@@UEBAHH@Z
?hasCurveGeometry@OGRMultiPoint@@UEBAHH@Z
?hasCurveGeometry@OGRMultiPolygon@@UEBAHH@Z
?hasCurveGeometry@OGRMultiSurface@@UEBAHH@Z
?hasCurveGeometry@OGRPolygon@@UEBAHH@Z
?hasCurveGeometry@OGRPolyhedralSurface@@UEBAHH@Z
?hasOnlyPowerOfTwoVaryingScales@TileMatrixSet@gdal@@QEBA_NXZ
?hasVariableMatrixWidth@TileMatrixSet@gdal@@QEBA_NXZ
?haveAllLevelsSameTileSize@TileMatrixSet@gdal@@QEBA_NXZ
?haveAllLevelsSameTopLeft@TileMatrixSet@gdal@@QEBA_NXZ
?haveGEOS@OGRGeometryFactory@@SA_NXZ
?identifier@TileMatrixSet@gdal@@QEBAAEBV?$basic_string@DU?$char_traits@D@std@@V?$allocator@D@2@@std@@XZ
?ifind@CPLString@@QEBA_KAEBV?$basic_string@DU?$char_traits@D@std@@V?$allocator@D@2@@std@@_K@Z
?ifind@CPLString@@QEBA_KPEBD_K@Z
?importBodyFromWkb@OGRCurveCollection@@QEAAHPEAVOGRGeometry@@PEBE_K_NP6AH0PEAVOGRCurve@@@ZW4OGRwkbVariant@@AEA_K@Z
?importCurveCollectionFromWkt@OGRGeometry@@IEAAHPEAPEBDHHHHP6AHPEAV1@PEAVOGRCurve@@@Z@Z
?importFromCRSURL@OGRSpatialReference@@QEAAHPEBD@Z
?importFromDict@OGRSpatialReference@@QEAAHPEBD0@Z
?importFromEPSG@OGRSpatialReference@@QEAAHH@Z
?importFromEPSGA@OGRSpatialReference@@QEAAHH@Z
?importFromERM@OGRSpatialReference@@QEAAHPEBD00@Z
?importFromESRI@OGRSpatialReference@@QEAAHPEAPEAD@Z
?importFromMICoordSys@OGRSpatialReference@@QEAAHPEBD@Z
?importFromOzi@OGRSpatialReference@@QEAAHPEBQEBD@Z
?importFromPCI@OGRSpatialReference@@QEAAHPEBD0PEAN@Z
?importFromPanorama@OGRSpatialReference@@QEAAHJJJPEAN@Z
?importFromProj4@OGRSpatialReference@@QEAAHPEBD@Z
?importFromURN@OGRSpatialReference@@QEAAHPEBD@Z
?importFromURNPart@OGRSpatialReference@@AEAAHPEBD00@Z
?importFromUSGS@OGRSpatialReference@@QEAAHJJPEANJH@Z
?importFromUrl@OGRSpatialReference@@QEAAHPEBD@Z
?importFromWKTListOnly@OGRPolygon@@MEAAHPEAPEBDHHAEAPEAVOGRRawPoint@@AEAHAEAPEAN@Z
?importFromWKTListOnly@OGRSimpleCurve@@IEAAHPEAPEBDHHAEAPEAVOGRRawPoint@@AEAHAEAPEAN@Z
?importFromWKTListOnly@OGRTriangle@@MEAAHPEAPEBDHHAEAPEAVOGRRawPoint@@AEAHAEAPEAN@Z
?importFromWMSAUTO@OGRSpatialReference@@QEAAHPEBD@Z
?importFromWkb@OGRCircularString@@UEAAHPEBE_KW4OGRwkbVariant@@AEA_K@Z
?importFromWkb@OGRCompoundCurve@@UEAAHPEBE_KW4OGRwkbVariant@@AEA_K@Z
?importFromWkb@OGRCurvePolygon@@UEAAHPEBE_KW4OGRwkbVariant@@AEA_K@Z
?importFromWkb@OGRGeometry@@QEAAHPEBE_KW4OGRwkbVariant@@@Z
?importFromWkb@OGRGeometryCollection@@UEAAHPEBE_KW4OGRwkbVariant@@AEA_K@Z
?importFromWkb@OGRLinearRing@@EEAAHPEBE_KW4OGRwkbVariant@@AEA_K@Z
?importFromWkb@OGRPoint@@UEAAHPEBE_KW4OGRwkbVariant@@AEA_K@Z
?importFromWkb@OGRPolygon@@UEAAHPEBE_KW4OGRwkbVariant@@AEA_K@Z
?importFromWkb@OGRPolyhedralSurface@@UEAAHPEBE_KW4OGRwkbVariant@@AEA_K@Z
?importFromWkb@OGRSimpleCurve@@UEAAHPEBE_KW4OGRwkbVariant@@AEA_K@Z
?importFromWkb@OGRTriangle@@UEAAHPEBE_KW4OGRwkbVariant@@AEA_K@Z
?importFromWkbInternal@OGRGeometryCollection@@AEAAHPEBE_KHW4OGRwkbVariant@@AEA_K@Z
?importFromWkt@OGRCircularString@@UEAAHPEAPEBD@Z
?importFromWkt@OGRCompoundCurve@@UEAAHPEAPEBD@Z
?importFromWkt@OGRCurvePolygon@@UEAAHPEAPEBD@Z
?importFromWkt@OGRGeometry@@QEAAHPEAPEAD@Z
?importFromWkt@OGRGeometryCollection@@UEAAHPEAPEBD@Z
?importFromWkt@OGRMultiCurve@@UEAAHPEAPEBD@Z
?importFromWkt@OGRMultiPoint@@UEAAHPEAPEBD@Z
?importFromWkt@OGRMultiSurface@@UEAAHPEAPEBD@Z
?importFromWkt@OGRPoint@@UEAAHPEAPEBD@Z
?importFromWkt@OGRPolygon@@UEAAHPEAPEBD@Z
?importFromWkt@OGRPolyhedralSurface@@UEAAHPEAPEBD@Z
?importFromWkt@OGRSimpleCurve@@UEAAHPEAPEBD@Z
?importFromWkt@OGRSpatialReference@@QEAAHPEAPEAD@Z
?importFromWkt@OGRSpatialReference@@QEAAHPEAPEBD@Z
?importFromWkt@OGRSpatialReference@@QEAAHPEAPEBDPEBQEBD@Z
?importFromWkt@OGRSpatialReference@@QEAAHPEBD@Z
?importFromWkt@OGRSpatialReference@@QEAAHPEBDPEBQEBD@Z
?importFromWkt@OGR_SRSNode@@AEAAHPEAPEBDHPEAH@Z
?importFromWkt@OGR_SRSNode@@QEAAHPEAPEAD@Z
?importFromWkt@OGR_SRSNode@@QEAAHPEAPEBD@Z
?importFromWktInternal@OGRGeometryCollection@@AEAAHPEAPEBDH@Z
?importFromWkt_Bracketed@OGRMultiPoint@@AEAAHPEAPEBDHH@Z
?importFromXML@OGRSpatialReference@@QEAAHPEBD@Z
?importPreambleFromWkb@OGRCurveCollection@@QEAAHPEAVOGRGeometry@@PEBEAEA_K2AEAW4OGRwkbByteOrder@@_KW4OGRwkbVariant@@@Z
?importPreambleFromWkb@OGRGeometry@@IEAAHPEBE_KAEAW4OGRwkbByteOrder@@W4OGRwkbVariant@@@Z
?importPreambleFromWkt@OGRGeometry@@IEAAHPEAPEBDPEAH1PEA_N@Z
?importPreambleOfCollectionFromWkb@OGRGeometry@@IEAAHPEBEAEA_K1AEAW4OGRwkbByteOrder@@_KAEAHW4OGRwkbVariant@@@Z
?importVertCSFromPanorama@OGRSpatialReference@@QEAAHH@Z
?isClockwise@OGRCurve@@UEBAHXZ
?isClockwise@OGRLineString@@UEBAHXZ
?isCompatibleSubType@OGRGeometryCollection@@MEBAHW4OGRwkbGeometryType@@@Z
?isCompatibleSubType@OGRMultiCurve@@MEBAHW4OGRwkbGeometryType@@@Z
?isCompatibleSubType@OGRMultiLineString@@MEBAHW4OGRwkbGeometryType@@@Z
?isCompatibleSubType@OGRMultiPoint@@MEBAHW4OGRwkbGeometryType@@@Z
?isCompatibleSubType@OGRMultiPolygon@@MEBAHW4OGRwkbGeometryType@@@Z
?isCompatibleSubType@OGRMultiSurface@@MEBAHW4OGRwkbGeometryType@@@Z
?isCompatibleSubType@OGRPolyhedralSurface@@MEBAHW4OGRwkbGeometryType@@@Z
?isCompatibleSubType@OGRTriangulatedSurface@@MEBAHW4OGRwkbGeometryType@@@Z
?isPointInRing@OGRLinearRing@@QEBAHPEBVOGRPoint@@H@Z
?isPointOnRingBoundary@OGRLinearRing@@QEBAHPEBVOGRPoint@@H@Z
?json_ex_get_object_by_path@@YAPEAUjson_object@@PEAU1@PEBD@Z
?listPredefinedTileMatrixSets@TileMatrixSet@gdal@@SA?AV?$set@V?$basic_string@DU?$char_traits@D@std@@V?$allocator@D@2@@std@@U?$less@V?$basic_string@DU?$char_traits@D@std@@V?$allocator@D@2@@std@@@2@V?$allocator@V?$basic_string@DU?$char_traits@D@std@@V?$allocator@D@2@@std@@@2@@std@@XZ
?lookupInDict@OGRSpatialReference@@CA?AVCPLString@@PEBD0@Z
?morphFromESRI@OGRSpatialReference@@QEAAHXZ
?morphToESRI@OGRSpatialReference@@QEAAHXZ
?nDEFAULT_AGEN@S57Writer@@2HB
?nDEFAULT_COMF@S57Writer@@2HB
?nDEFAULT_CSCL@S57Writer@@2HB
?nDEFAULT_EXPP@S57Writer@@2HB
?nDEFAULT_HDAT@S57Writer@@2HB
?nDEFAULT_INTU@S57Writer@@2HB
?nDEFAULT_SDAT@S57Writer@@2HB
?nDEFAULT_SOMF@S57Writer@@2HB
?nDEFAULT_VDAT@S57Writer@@2HB
?notifyChange@OGR_SRSNode@@AEAAXXZ
?organizePolygons@OGRGeometryFactory@@SAPEAVOGRGeometry@@PEAPEAV2@HPEAHPEAPEBD@Z
?parse@TileMatrixSet@gdal@@SA?AV?$unique_ptr@VTileMatrixSet@gdal@@U?$default_delete@VTileMatrixSet@gdal@@@std@@@std@@PEBD@Z
?parse@swq_select@@QEAA?AW4CPLErr@@PEAVswq_field_list@@PEAVswq_select_parse_options@@@Z
?postpreparse@swq_select@@AEAAXXZ
?preparse@swq_select@@QEAA?AW4CPLErr@@PEBDH@Z
?quickValidityCheck@OGRTriangle@@AEBA_NXZ
?release@?$unique_ptr@UCPLXMLNode@@UCPLXMLTreeCloserDeleter@@@std@@QEAAPEAUCPLXMLNode@@XZ
?removeCurve@OGRCurveCollection@@QEAAHH_N@Z
?removeGeometry@OGRGeometryCollection@@UEAAHHH@Z
?removeGeometry@OGRPolyhedralSurface@@QEAAHHH@Z
?removeLowerDimensionSubGeoms@OGRGeometryFactory@@SAPEAVOGRGeometry@@PEBV2@@Z
?removePoint@OGRSimpleCurve@@QEAA_NH@Z
?removeRing@OGRCurvePolygon@@QEAAHH_N@Z
?replaceAll@CPLString@@QEAAAEAV1@AEBV?$basic_string@DU?$char_traits@D@std@@V?$allocator@D@2@@std@@0@Z
?replaceAll@CPLString@@QEAAAEAV1@AEBV?$basic_string@DU?$char_traits@D@std@@V?$allocator@D@2@@std@@D@Z
?replaceAll@CPLString@@QEAAAEAV1@DAEBV?$basic_string@DU?$char_traits@D@std@@V?$allocator@D@2@@std@@@Z
?replaceAll@CPLString@@QEAAAEAV1@DD@Z
?reset@?$unique_ptr@UCPLXMLNode@@UCPLXMLTreeCloserDeleter@@@std@@QEAAXPEAUCPLXMLNode@@@Z
?reversePoints@OGRSimpleCurve@@QEAAXXZ
?reverseWindingOrder@OGRLinearRing@@UEAAXXZ
?segmentize@OGRCircularString@@UEAAXN@Z
?segmentize@OGRCompoundCurve@@UEAAXN@Z
?segmentize@OGRCurveCollection@@QEAAXN@Z
?segmentize@OGRCurvePolygon@@UEAAXN@Z
?segmentize@OGRGeometry@@UEAAXN@Z
?segmentize@OGRGeometryCollection@@UEAAXN@Z
?segmentize@OGRSimpleCurve@@UEAAXN@Z
?set3D@OGRCompoundCurve@@UEAAXH@Z
?set3D@OGRCurveCollection@@QEAAXPEAVOGRGeometry@@H@Z
?set3D@OGRCurvePolygon@@UEAAXH@Z
?set3D@OGRGeometry@@UEAAXH@Z
?set3D@OGRGeometryCollection@@UEAAXH@Z
?set3D@OGRPolyhedralSurface@@UEAAXH@Z
?set3D@OGRSimpleCurve@@UEAAXH@Z
?setCoordinateDimension@OGRCompoundCurve@@UEAAXH@Z
?setCoordinateDimension@OGRCurveCollection@@QEAAXPEAVOGRGeometry@@H@Z
?setCoordinateDimension@OGRCurvePolygon@@UEAAXH@Z
?setCoordinateDimension@OGRGeometry@@UEAAXH@Z
?setCoordinateDimension@OGRGeometryCollection@@UEAAXH@Z
?setCoordinateDimension@OGRPoint@@UEAAXH@Z
?setCoordinateDimension@OGRPolyhedralSurface@@UEAAXH@Z
?setCoordinateDimension@OGRSimpleCurve@@UEAAXH@Z
?setM@OGRIteratedPoint@@QEAAXN@Z
?setM@OGRPoint@@QEAAXN@Z
?setM@OGRSimpleCurve@@QEAAXHN@Z
?setMeasured@OGRCompoundCurve@@UEAAXH@Z
?setMeasured@OGRCurveCollection@@QEAAXPEAVOGRGeometry@@H@Z
?setMeasured@OGRCurvePolygon@@UEAAXH@Z
?setMeasured@OGRGeometry@@UEAAXH@Z
?setMeasured@OGRGeometryCollection@@UEAAXH@Z
?setMeasured@OGRPolyhedralSurface@@UEAAXH@Z
?setMeasured@OGRSimpleCurve@@UEAAXH@Z
?setNumPoints@OGRSimpleCurve@@QEAAXHH@Z
?setPoint@OGRSimpleCurve@@QEAAXHNN@Z
?setPoint@OGRSimpleCurve@@QEAAXHNNN@Z
?setPoint@OGRSimpleCurve@@QEAAXHNNNN@Z
?setPoint@OGRSimpleCurve@@QEAAXHPEAVOGRPoint@@@Z
?setPointM@OGRSimpleCurve@@QEAAXHNNN@Z
?setPoints@OGRSimpleCurve@@QEAAXHPEBN000@Z
?setPoints@OGRSimpleCurve@@QEAAXHPEBN00@Z
?setPoints@OGRSimpleCurve@@QEAAXHPEBVOGRRawPoint@@PEBN1@Z
?setPoints@OGRSimpleCurve@@QEAAXHPEBVOGRRawPoint@@PEBN@Z
?setPointsM@OGRSimpleCurve@@QEAAXHPEBN00@Z
?setPointsM@OGRSimpleCurve@@QEAAXHPEBVOGRRawPoint@@PEBN@Z
?setX@OGRIteratedPoint@@QEAAXN@Z
?setX@OGRPoint@@QEAAXN@Z
?setY@OGRIteratedPoint@@QEAAXN@Z
?setY@OGRPoint@@QEAAXN@Z
?setZ@OGRIteratedPoint@@QEAAXN@Z
?setZ@OGRPoint@@QEAAXN@Z
?setZ@OGRSimpleCurve@@QEAAXHN@Z
?size@Bands@GDALDataset@@QEBA_KXZ
?size@CPLStringList@@QEBAHXZ
?size@GDALRawResult@@QEBA_KXZ
?size@Layers@GDALDataset@@QEBA_KXZ
?stealCurve@OGRCompoundCurve@@QEAAPEAVOGRCurve@@H@Z
?stealCurve@OGRCurveCollection@@QEAAPEAVOGRCurve@@H@Z
?stealExteriorRing@OGRPolygon@@QEAAPEAVOGRLinearRing@@XZ
?stealExteriorRingCurve@OGRCurvePolygon@@QEAAPEAVOGRCurve@@XZ
?stealInteriorRing@OGRPolygon@@UEAAPEAVOGRLinearRing@@H@Z
?swap@?$unique_ptr@UCPLXMLNode@@UCPLXMLTreeCloserDeleter@@@std@@QEAAXAEAV12@@Z
?swapXY@OGRCompoundCurve@@UEAAXXZ
?swapXY@OGRCurveCollection@@QEAAXXZ
?swapXY@OGRCurvePolygon@@UEAAXXZ
?swapXY@OGRGeometry@@UEAAXXZ
?swapXY@OGRGeometryCollection@@UEAAXXZ
?swapXY@OGRPoint@@UEAAXXZ
?swapXY@OGRPolyhedralSurface@@UEAAXXZ
?swapXY@OGRSimpleCurve@@UEAAXXZ
?swq_expr_compile2@@YA?AW4CPLErr@@PEBDPEAVswq_field_list@@HPEAVswq_custom_func_registrar@@PEAPEAVswq_expr_node@@@Z
?swq_expr_compile@@YA?AW4CPLErr@@PEBDHPEAPEADPEAW4swq_field_type@@HPEAVswq_custom_func_registrar@@PEAPEAVswq_expr_node@@@Z
?swq_identify_field@@YAHPEBD0PEAVswq_field_list@@PEAW4swq_field_type@@PEAH@Z
?swq_is_reserved_keyword@@YAHPEBD@Z
?swq_select_summarize@@YAPEBDPEAVswq_select@@HPEBD@Z
?swqerror@@YAXPEAVswq_parse_context@@PEBD@Z
?swqlex@@YAHPEAPEAVswq_expr_node@@PEAVswq_parse_context@@@Z
?swqparse@@YAHPEAVswq_parse_context@@@Z
?tileMatrixList@TileMatrixSet@gdal@@QEBAAEBV?$vector@UTileMatrix@TileMatrixSet@gdal@@V?$allocator@UTileMatrix@TileMatrixSet@gdal@@@std@@@std@@XZ
?title@TileMatrixSet@gdal@@QEBAAEBV?$basic_string@DU?$char_traits@D@std@@V?$allocator@D@2@@std@@XZ
?toCircularString@OGRCircularString@@QEAAPEAV1@XZ
?toCircularString@OGRCircularString@@QEBAPEBV1@XZ
?toCircularString@OGRGeometry@@QEAAPEAVOGRCircularString@@XZ
?toCircularString@OGRGeometry@@QEBAPEBVOGRCircularString@@XZ
?toCompoundCurve@OGRCompoundCurve@@QEAAPEAV1@XZ
?toCompoundCurve@OGRCompoundCurve@@QEBAPEBV1@XZ
?toCompoundCurve@OGRGeometry@@QEAAPEAVOGRCompoundCurve@@XZ
?toCompoundCurve@OGRGeometry@@QEBAPEBVOGRCompoundCurve@@XZ
?toCurve@OGRCompoundCurve@@QEAAPEAVOGRCurve@@XZ
?toCurve@OGRCompoundCurve@@QEBAPEBVOGRCurve@@XZ
?toCurve@OGRCurve@@QEAAPEAV1@XZ
?toCurve@OGRCurve@@QEBAPEBV1@XZ
?toCurve@OGRGeometry@@QEAAPEAVOGRCurve@@XZ
?toCurve@OGRGeometry@@QEBAPEBVOGRCurve@@XZ
?toCurve@OGRSimpleCurve@@QEAAPEAVOGRCurve@@XZ
?toCurve@OGRSimpleCurve@@QEBAPEBVOGRCurve@@XZ
?toCurvePolygon@OGRCurvePolygon@@QEAAPEAV1@XZ
?toCurvePolygon@OGRCurvePolygon@@QEBAPEBV1@XZ
?toCurvePolygon@OGRGeometry@@QEAAPEAVOGRCurvePolygon@@XZ
?toCurvePolygon@OGRGeometry@@QEBAPEBVOGRCurvePolygon@@XZ
?toCurvePolygon@OGRPolygon@@QEAAPEAVOGRCurvePolygon@@XZ
?toCurvePolygon@OGRPolygon@@QEBAPEBVOGRCurvePolygon@@XZ
?toGeometryCollection@OGRGeometry@@QEAAPEAVOGRGeometryCollection@@XZ
?toGeometryCollection@OGRGeometry@@QEBAPEBVOGRGeometryCollection@@XZ
?toGeometryCollection@OGRGeometryCollection@@QEAAPEAV1@XZ
?toGeometryCollection@OGRGeometryCollection@@QEBAPEBV1@XZ
?toGeometryCollection@OGRMultiCurve@@QEAAPEAVOGRGeometryCollection@@XZ
?toGeometryCollection@OGRMultiCurve@@QEBAPEBVOGRGeometryCollection@@XZ
?toGeometryCollection@OGRMultiPoint@@QEAAPEAVOGRGeometryCollection@@XZ
?toGeometryCollection@OGRMultiPoint@@QEBAPEBVOGRGeometryCollection@@XZ
?toGeometryCollection@OGRMultiSurface@@QEAAPEAVOGRGeometryCollection@@XZ
?toGeometryCollection@OGRMultiSurface@@QEBAPEBVOGRGeometryCollection@@XZ
?toLineString@OGRGeometry@@QEAAPEAVOGRLineString@@XZ
?toLineString@OGRGeometry@@QEBAPEBVOGRLineString@@XZ
?toLineString@OGRLineString@@QEAAPEAV1@XZ
?toLineString@OGRLineString@@QEBAPEBV1@XZ
?toLineString@OGRLinearRing@@QEAAPEAVOGRLineString@@XZ
?toLineString@OGRLinearRing@@QEBAPEBVOGRLineString@@XZ
?toLinearRing@OGRGeometry@@QEAAPEAVOGRLinearRing@@XZ
?toLinearRing@OGRGeometry@@QEBAPEBVOGRLinearRing@@XZ
?toLinearRing@OGRLinearRing@@QEAAPEAV1@XZ
?toLinearRing@OGRLinearRing@@QEBAPEBV1@XZ
?toMultiCurve@OGRGeometry@@QEAAPEAVOGRMultiCurve@@XZ
?toMultiCurve@OGRGeometry@@QEBAPEBVOGRMultiCurve@@XZ
?toMultiCurve@OGRMultiCurve@@QEAAPEAV1@XZ
?toMultiCurve@OGRMultiCurve@@QEBAPEBV1@XZ
?toMultiCurve@OGRMultiLineString@@QEAAPEAVOGRMultiCurve@@XZ
?toMultiCurve@OGRMultiLineString@@QEBAPEBVOGRMultiCurve@@XZ
?toMultiLineString@OGRGeometry@@QEAAPEAVOGRMultiLineString@@XZ
?toMultiLineString@OGRGeometry@@QEBAPEBVOGRMultiLineString@@XZ
?toMultiLineString@OGRMultiLineString@@QEAAPEAV1@XZ
?toMultiLineString@OGRMultiLineString@@QEBAPEBV1@XZ
?toMultiPoint@OGRGeometry@@QEAAPEAVOGRMultiPoint@@XZ
?toMultiPoint@OGRGeometry@@QEBAPEBVOGRMultiPoint@@XZ
?toMultiPoint@OGRMultiPoint@@QEAAPEAV1@XZ
?toMultiPoint@OGRMultiPoint@@QEBAPEBV1@XZ
?toMultiPolygon@OGRGeometry@@QEAAPEAVOGRMultiPolygon@@XZ
?toMultiPolygon@OGRGeometry@@QEBAPEBVOGRMultiPolygon@@XZ
?toMultiPolygon@OGRMultiPolygon@@QEAAPEAV1@XZ
?toMultiPolygon@OGRMultiPolygon@@QEBAPEBV1@XZ
?toMultiSurface@OGRGeometry@@QEAAPEAVOGRMultiSurface@@XZ
?toMultiSurface@OGRGeometry@@QEBAPEBVOGRMultiSurface@@XZ
?toMultiSurface@OGRMultiPolygon@@QEAAPEAVOGRMultiSurface@@XZ
?toMultiSurface@OGRMultiPolygon@@QEBAPEBVOGRMultiSurface@@XZ
?toMultiSurface@OGRMultiSurface@@QEAAPEAV1@XZ
?toMultiSurface@OGRMultiSurface@@QEBAPEBV1@XZ
?toPoint@OGRGeometry@@QEAAPEAVOGRPoint@@XZ
?toPoint@OGRGeometry@@QEBAPEBVOGRPoint@@XZ
?toPoint@OGRPoint@@QEAAPEAV1@XZ
?toPoint@OGRPoint@@QEBAPEBV1@XZ
?toPolygon@OGRGeometry@@QEAAPEAVOGRPolygon@@XZ
?toPolygon@OGRGeometry@@QEBAPEBVOGRPolygon@@XZ
?toPolygon@OGRPolygon@@QEAAPEAV1@XZ
?toPolygon@OGRPolygon@@QEBAPEBV1@XZ
?toPolygon@OGRTriangle@@QEAAPEAVOGRPolygon@@XZ
?toPolygon@OGRTriangle@@QEBAPEBVOGRPolygon@@XZ
?toPolyhedralSurface@OGRGeometry@@QEAAPEAVOGRPolyhedralSurface@@XZ
?toPolyhedralSurface@OGRGeometry@@QEBAPEBVOGRPolyhedralSurface@@XZ
?toPolyhedralSurface@OGRPolyhedralSurface@@QEAAPEAV1@XZ
?toPolyhedralSurface@OGRPolyhedralSurface@@QEBAPEBV1@XZ
?toPolyhedralSurface@OGRTriangulatedSurface@@QEAAPEAVOGRPolyhedralSurface@@XZ
?toPolyhedralSurface@OGRTriangulatedSurface@@QEBAPEBVOGRPolyhedralSurface@@XZ
?toSimpleCurve@OGRCircularString@@QEAAPEAVOGRSimpleCurve@@XZ
?toSimpleCurve@OGRCircularString@@QEBAPEBVOGRSimpleCurve@@XZ
?toSimpleCurve@OGRCurve@@QEAAPEAVOGRSimpleCurve@@XZ
?toSimpleCurve@OGRCurve@@QEBAPEBVOGRSimpleCurve@@XZ
?toSimpleCurve@OGRGeometry@@QEAAPEAVOGRSimpleCurve@@XZ
?toSimpleCurve@OGRGeometry@@QEBAPEBVOGRSimpleCurve@@XZ
?toSimpleCurve@OGRLineString@@QEAAPEAVOGRSimpleCurve@@XZ
?toSimpleCurve@OGRLineString@@QEBAPEBVOGRSimpleCurve@@XZ
?toSimpleCurve@OGRSimpleCurve@@QEAAPEAV1@XZ
?toSimpleCurve@OGRSimpleCurve@@QEBAPEBV1@XZ
?toSurface@OGRCurvePolygon@@QEAAPEAVOGRSurface@@XZ
?toSurface@OGRCurvePolygon@@QEBAPEBVOGRSurface@@XZ
?toSurface@OGRGeometry@@QEAAPEAVOGRSurface@@XZ
?toSurface@OGRGeometry@@QEBAPEBVOGRSurface@@XZ
?toSurface@OGRPolyhedralSurface@@QEAAPEAVOGRSurface@@XZ
?toSurface@OGRPolyhedralSurface@@QEBAPEBVOGRSurface@@XZ
?toSurface@OGRSurface@@QEAAPEAV1@XZ
?toSurface@OGRSurface@@QEBAPEBV1@XZ
?toTriangle@OGRGeometry@@QEAAPEAVOGRTriangle@@XZ
?toTriangle@OGRGeometry@@QEBAPEBVOGRTriangle@@XZ
?toTriangle@OGRTriangle@@QEAAPEAV1@XZ
?toTriangle@OGRTriangle@@QEBAPEBV1@XZ
?toTriangulatedSurface@OGRGeometry@@QEAAPEAVOGRTriangulatedSurface@@XZ
?toTriangulatedSurface@OGRGeometry@@QEBAPEBVOGRTriangulatedSurface@@XZ
?toTriangulatedSurface@OGRTriangulatedSurface@@QEAAPEAV1@XZ
?toTriangulatedSurface@OGRTriangulatedSurface@@QEBAPEBV1@XZ
?toUpperClass@OGRCircularString@@QEAAPEAVOGRSimpleCurve@@XZ
?toUpperClass@OGRCircularString@@QEBAPEBVOGRSimpleCurve@@XZ
?toUpperClass@OGRLineString@@QEAAPEAVOGRSimpleCurve@@XZ
?toUpperClass@OGRLineString@@QEBAPEBVOGRSimpleCurve@@XZ
?toUpperClass@OGRLinearRing@@QEAAPEAVOGRLineString@@XZ
?toUpperClass@OGRLinearRing@@QEBAPEBVOGRLineString@@XZ
?toUpperClass@OGRMultiCurve@@QEAAPEAVOGRGeometryCollection@@XZ
?toUpperClass@OGRMultiCurve@@QEBAPEBVOGRGeometryCollection@@XZ
?toUpperClass@OGRMultiLineString@@QEAAPEAVOGRGeometryCollection@@XZ
?toUpperClass@OGRMultiLineString@@QEBAPEBVOGRGeometryCollection@@XZ
?toUpperClass@OGRMultiPoint@@QEAAPEAVOGRGeometryCollection@@XZ
?toUpperClass@OGRMultiPoint@@QEBAPEBVOGRGeometryCollection@@XZ
?toUpperClass@OGRMultiPolygon@@QEAAPEAVOGRGeometryCollection@@XZ
?toUpperClass@OGRMultiPolygon@@QEBAPEBVOGRGeometryCollection@@XZ
?toUpperClass@OGRMultiSurface@@QEAAPEAVOGRGeometryCollection@@XZ
?toUpperClass@OGRMultiSurface@@QEBAPEBVOGRGeometryCollection@@XZ
?toUpperClass@OGRPolygon@@QEAAPEAVOGRCurvePolygon@@XZ
?toUpperClass@OGRPolygon@@QEBAPEBVOGRCurvePolygon@@XZ
?toUpperClass@OGRTriangle@@QEAAPEAVOGRPolygon@@XZ
?toUpperClass@OGRTriangle@@QEBAPEBVOGRPolygon@@XZ
?toUpperClass@OGRTriangulatedSurface@@QEAAPEAVOGRPolyhedralSurface@@XZ
?toUpperClass@OGRTriangulatedSurface@@QEBAPEBVOGRPolyhedralSurface@@XZ
?tolower@CPLString@@QEAAAEAV1@XZ
?toupper@CPLString@@QEAAAEAV1@XZ
?transform@OGRCompoundCurve@@UEAAHPEAVOGRCoordinateTransformation@@@Z
?transform@OGRCurveCollection@@QEAAHPEAVOGRGeometry@@PEAVOGRCoordinateTransformation@@@Z
?transform@OGRCurvePolygon@@UEAAHPEAVOGRCoordinateTransformation@@@Z
?transform@OGRGeometryCollection@@UEAAHPEAVOGRCoordinateTransformation@@@Z
?transform@OGRLinearRing@@UEAAHPEAVOGRCoordinateTransformation@@@Z
?transform@OGRPoint@@UEAAHPEAVOGRCoordinateTransformation@@@Z
?transform@OGRPolyhedralSurface@@UEAAHPEAVOGRCoordinateTransformation@@@Z
?transform@OGRSimpleCurve@@UEAAHPEAVOGRCoordinateTransformation@@@Z
?transformTo@OGRGeometry@@QEAAHPEAVOGRSpatialReference@@@Z
?transformWithOptions@OGRGeometryFactory@@SAPEAVOGRGeometry@@PEBV2@PEAVOGRCoordinateTransformation@@PEAPEADAEBVTransformWithOptionsCache@1@@Z
?update@Iterator@OGRSimpleCurve@@AEAAXXZ
?vPrintf@CPLString@@QEAAAEAV1@PEBDPEAD@Z
?visit@OGRDefaultConstGeometryVisitor@@UEAAXPEBVOGRCircularString@@@Z
?visit@OGRDefaultConstGeometryVisitor@@UEAAXPEBVOGRCompoundCurve@@@Z
?visit@OGRDefaultConstGeometryVisitor@@UEAAXPEBVOGRCurvePolygon@@@Z
?visit@OGRDefaultConstGeometryVisitor@@UEAAXPEBVOGRGeometryCollection@@@Z
?visit@OGRDefaultConstGeometryVisitor@@UEAAXPEBVOGRLineString@@@Z
?visit@OGRDefaultConstGeometryVisitor@@UEAAXPEBVOGRLinearRing@@@Z
?visit@OGRDefaultConstGeometryVisitor@@UEAAXPEBVOGRMultiCurve@@@Z
?visit@OGRDefaultConstGeometryVisitor@@UEAAXPEBVOGRMultiLineString@@@Z
?visit@OGRDefaultConstGeometryVisitor@@UEAAXPEBVOGRMultiPoint@@@Z
?visit@OGRDefaultConstGeometryVisitor@@UEAAXPEBVOGRMultiPolygon@@@Z
?visit@OGRDefaultConstGeometryVisitor@@UEAAXPEBVOGRMultiSurface@@@Z
?visit@OGRDefaultConstGeometryVisitor@@UEAAXPEBVOGRPoint@@@Z
?visit@OGRDefaultConstGeometryVisitor@@UEAAXPEBVOGRPolygon@@@Z
?visit@OGRDefaultConstGeometryVisitor@@UEAAXPEBVOGRPolyhedralSurface@@@Z
?visit@OGRDefaultConstGeometryVisitor@@UEAAXPEBVOGRTriangle@@@Z
?visit@OGRDefaultConstGeometryVisitor@@UEAAXPEBVOGRTriangulatedSurface@@@Z
?visit@OGRDefaultGeometryVisitor@@UEAAXPEAVOGRCircularString@@@Z
?visit@OGRDefaultGeometryVisitor@@UEAAXPEAVOGRCompoundCurve@@@Z
?visit@OGRDefaultGeometryVisitor@@UEAAXPEAVOGRCurvePolygon@@@Z
?visit@OGRDefaultGeometryVisitor@@UEAAXPEAVOGRGeometryCollection@@@Z
?visit@OGRDefaultGeometryVisitor@@UEAAXPEAVOGRLineString@@@Z
?visit@OGRDefaultGeometryVisitor@@UEAAXPEAVOGRLinearRing@@@Z
?visit@OGRDefaultGeometryVisitor@@UEAAXPEAVOGRMultiCurve@@@Z
?visit@OGRDefaultGeometryVisitor@@UEAAXPEAVOGRMultiLineString@@@Z
?visit@OGRDefaultGeometryVisitor@@UEAAXPEAVOGRMultiPoint@@@Z
?visit@OGRDefaultGeometryVisitor@@UEAAXPEAVOGRMultiPolygon@@@Z
?visit@OGRDefaultGeometryVisitor@@UEAAXPEAVOGRMultiSurface@@@Z
?visit@OGRDefaultGeometryVisitor@@UEAAXPEAVOGRPoint@@@Z
?visit@OGRDefaultGeometryVisitor@@UEAAXPEAVOGRPolygon@@@Z
?visit@OGRDefaultGeometryVisitor@@UEAAXPEAVOGRPolyhedralSurface@@@Z
?visit@OGRDefaultGeometryVisitor@@UEAAXPEAVOGRTriangle@@@Z
?visit@OGRDefaultGeometryVisitor@@UEAAXPEAVOGRTriangulatedSurface@@@Z
?wellKnownScaleSet@TileMatrixSet@gdal@@QEBAAEBV?$basic_string@DU?$char_traits@D@std@@V?$allocator@D@2@@std@@XZ
?wktTypeString@OGRGeometry@@IEBA?AV?$basic_string@DU?$char_traits@D@std@@V?$allocator@D@2@@std@@W4OGRwkbVariant@@@Z
BSBClose
BSBCreate
BSBOpen
BSBReadScanline
BSBWritePCT
BSBWriteScanline
CPLAcquireLock
CPLAcquireMutex
CPLAddXMLAttributeAndValue
CPLAddXMLChild
CPLAddXMLSibling
CPLAtoGIntBig
CPLAtoGIntBigEx
CPLAtof
CPLAtofDelim
CPLAtofM
CPLAtomicAdd
CPLBase64DecodeInPlace
CPLBase64Encode
CPLBinaryToHex
CPLCalloc
CPLCanRecode
CPLCheckForFile
CPLCleanTrailingSlash
CPLCleanXMLElementName
CPLCleanupErrorMutex
CPLCleanupMasterMutex
CPLCleanupSharedFileMutex
CPLCleanupTLS
CPLClearRecodeWarningFlags
CPLCloneXMLTree
CPLCloseFileInZip
CPLCloseShared
CPLCloseZip
CPLCondBroadcast
CPLCondSignal
CPLCondTimedWait
CPLCondWait
CPLCopyFile
CPLCopyTree
CPLCorrespondingPaths
CPLCreateCond
CPLCreateFileInZip
CPLCreateJoinableThread
CPLCreateLock
CPLCreateMutex
CPLCreateMutexEx
CPLCreateOrAcquireLock
CPLCreateOrAcquireMutex
CPLCreateOrAcquireMutexEx
CPLCreateThread
CPLCreateXMLElementAndValue
CPLCreateXMLNode
CPLCreateZip
CPLDMSToDec
CPLDebug
CPLDecToDMS
CPLDecToPackedDMS
CPLDefaultErrorHandler
CPLDefaultFindFile
CPLDestroyCompressorRegistry
CPLDestroyCond
CPLDestroyLock
CPLDestroyMutex
CPLDestroyXMLNode
CPLDumpSharedList
CPLEmergencyError
CPLEncodingCharSize
CPLError
CPLErrorReset
CPLErrorSetState
CPLErrorV
CPLEscapeString
CPLExpandTilde
CPLExtractRelativePath
CPLFGets
CPLFetchBool
CPLFindFile
CPLFinderClean
CPLForceToASCII
CPLFormCIFilename
CPLFormFilename
CPLFreeConfig
CPLGenerateTempFilename
CPLGetBasename
CPLGetCompressor
CPLGetCompressors
CPLGetConfigOption
CPLGetConfigOptions
CPLGetCurrentDir
CPLGetCurrentProcessID
CPLGetDecompressor
CPLGetDecompressors
CPLGetDirname
CPLGetErrorCounter
CPLGetErrorHandlerUserData
CPLGetExecPath
CPLGetExtension
CPLGetFilename
CPLGetHomeDir
CPLGetLastErrorMsg
CPLGetLastErrorNo
CPLGetLastErrorType
CPLGetNumCPUs
CPLGetPID
CPLGetPageSize
CPLGetPath
CPLGetPhysicalRAM
CPLGetSharedList
CPLGetSymbol
CPLGetTLS
CPLGetTLSEx
CPLGetThreadLocalConfigOption
CPLGetThreadLocalConfigOptions
CPLGetThreadingModel
CPLGetUsablePhysicalRAM
CPLGetValueType
CPLGetXMLNode
CPLGetXMLValue
CPLHTTPCleanup
CPLHTTPDestroyMultiResult
CPLHTTPDestroyResult
CPLHTTPEnabled
CPLHTTPFetch
CPLHTTPFetchEx
CPLHTTPMultiFetch
CPLHTTPParseMultipartMime
CPLHTTPPopFetchCallback
CPLHTTPPushFetchCallback
CPLHTTPSetFetchCallback
CPLHalfToFloat
CPLHashSetClear
CPLHashSetDestroy
CPLHashSetEqualPointer
CPLHashSetEqualStr
CPLHashSetForeach
CPLHashSetHashPointer
CPLHashSetHashStr
CPLHashSetInsert
CPLHashSetLookup
CPLHashSetNew
CPLHashSetRemove
CPLHashSetRemoveDeferRehash
CPLHashSetSize
CPLHexToBinary
CPLIsASCII
CPLIsFilenameRelative
CPLIsPowerOfTwo
CPLIsUTF8
CPLIsVirtualMemFileMapAvailable
CPLJoinThread
CPLLaunderForFilename
CPLListAppend
CPLListCount
CPLListDestroy
CPLListGet
CPLListGetData
CPLListGetLast
CPLListGetNext
CPLListInsert
CPLListRemove
CPLLoadConfigOptionsFromFile
CPLLoadConfigOptionsFromPredefinedFiles
CPLLockFile
CPLLockSetDebugPerf
CPLLoggingErrorHandler
CPLMD5String
CPLMalloc
CPLMoveFile
CPLOpenShared
CPLPackedDMSToDec
CPLParseNameValue
CPLParseXMLFile
CPLParseXMLString
CPLPipeRead
CPLPipeWrite
CPLPopErrorHandler
CPLPopFileFinder
CPLPopFinderLocation
CPLPrintDouble
CPLPrintInt32
CPLPrintPointer
CPLPrintString
CPLPrintStringFill
CPLPrintTime
CPLPrintUIntBig
CPLProjectRelativeFilename
CPLPushErrorHandler
CPLPushErrorHandlerEx
CPLPushFileFinder
CPLPushFinderLocation
CPLQuadTreeCreate
CPLQuadTreeCreateEx
CPLQuadTreeDestroy
CPLQuadTreeDump
CPLQuadTreeForceUseOfSubNodes
CPLQuadTreeForeach
CPLQuadTreeGetAdvisedMaxDepth
CPLQuadTreeGetStats
CPLQuadTreeInsert
CPLQuadTreeInsertWithBounds
CPLQuadTreeRemove
CPLQuadTreeSearch
CPLQuadTreeSetBucketCapacity
CPLQuadTreeSetMaxDepth
CPLQuietErrorHandler
CPLReadDir
CPLReadLine
CPLReadLine2L
CPLReadLine3L
CPLReadLineL
CPLRealloc
CPLRecode
CPLRecodeFromWChar
CPLRecodeToWChar
CPLRegisterCompressor
CPLRegisterDecompressor
CPLReleaseLock
CPLReleaseMutex
CPLRemoveXMLChild
CPLResetExtension
CPLSPrintf
CPLScanDouble
CPLScanLong
CPLScanPointer
CPLScanString
CPLScanUIntBig
CPLScanULong
CPLSearchXMLNode
CPLSerializeXMLTree
CPLSerializeXMLTreeToFile
CPLSetConfigOption
CPLSetConfigOptions
CPLSetCurrentErrorHandlerCatchDebug
CPLSetErrorHandler
CPLSetErrorHandlerEx
CPLSetTLS
CPLSetTLSWithFreeFunc
CPLSetTLSWithFreeFuncEx
CPLSetThreadLocalConfigOption
CPLSetThreadLocalConfigOptions
CPLSetXMLValue
CPLSleep
CPLSpawn
CPLSpawnAsync
CPLSpawnAsyncCloseErrorFileHandle
CPLSpawnAsyncCloseInputFileHandle
CPLSpawnAsyncCloseOutputFileHandle
CPLSpawnAsyncFinish
CPLSpawnAsyncGetChildProcessId
CPLSpawnAsyncGetErrorFileHandle
CPLSpawnAsyncGetInputFileHandle
CPLSpawnAsyncGetOutputFileHandle
CPLStat
CPLStrdup
CPLStringToComplex
CPLStripXMLNamespace
CPLStrlcat
CPLStrlcpy
CPLStrlenUTF8
CPLStrlwr
CPLStrnlen
CPLStrtod
CPLStrtodDelim
CPLStrtof
CPLStrtofDelim
CPLSymlink
CPLTestBool
CPLTestBoolean
CPLTripleToFloat
CPLUnescapeString
CPLUnlinkTree
CPLUnlockFile
CPLVASPrintf
CPLValidateXML
CPLVerifyConfiguration
CPLVirtualMemDeclareThread
CPLVirtualMemDerivedNew
CPLVirtualMemFileMapNew
CPLVirtualMemFree
CPLVirtualMemGetAccessMode
CPLVirtualMemGetAddr
CPLVirtualMemGetPageSize
CPLVirtualMemGetSize
CPLVirtualMemIsAccessThreadSafe
CPLVirtualMemIsFileMapping
CPLVirtualMemManagerTerminate
CPLVirtualMemNew
CPLVirtualMemPin
CPLVirtualMemUnDeclareThread
CPLWriteFileInZip
CPLZLibDeflate
CPLZLibInflate
CPL_HMAC_SHA256
CPL_SHA256
CPL_SHA256Final
CPL_SHA256Init
CPL_SHA256Update
CPLprintf
CPLsnprintf
CPLsprintf
CPLsscanf
CPLvsnprintf
CSLAddNameValue
CSLAddString
CSLAddStringMayFail
CSLAppendPrintf
CSLCount
CSLDestroy
CSLDuplicate
CSLFetchBoolean
CSLFetchNameValue
CSLFetchNameValueDef
CSLFetchNameValueMultiple
CSLFindName
CSLFindString
CSLFindStringCaseSensitive
CSLGetField
CSLInsertString
CSLInsertStrings
CSLLoad
CSLLoad2
CSLMerge
CSLParseCommandLine
CSLPartialFindString
CSLPrint
CSLRemoveStrings
CSLSave
CSLSetNameValue
CSLSetNameValueSeparator
CSLTestBoolean
CSLTokenizeString
CSLTokenizeString2
CSLTokenizeStringComplex
CSVDeaccess
CSVDetectSeperator
CSVFilename
CSVGetField
CSVGetFieldId
CSVGetFieldIdL
CSVGetFileFieldId
CSVGetNextLine
CSVReadParseLine
CSVReadParseLine2
CSVReadParseLine2L
CSVReadParseLine3L
CSVReadParseLineL
CSVRewind
CSVScanFile
CSVScanFileByName
CSVScanLines
CSVScanLinesL
DGNAddMSLink
DGNAddRawAttrLink
DGNAddShapeFillInfo
DGNCloneElement
DGNClose
DGNCreate
DGNCreateArcElem
DGNCreateArcElem2D
DGNCreateCellHeaderElem
DGNCreateCellHeaderFromGroup
DGNCreateColorTableElem
DGNCreateComplexHeaderElem
DGNCreateComplexHeaderFromGroup
DGNCreateConeElem
DGNCreateMultiPointElem
DGNCreateSolidHeaderElem
DGNCreateSolidHeaderFromGroup
DGNCreateTextElem
DGNDumpElement
DGNElemTypeHasDispHdr
DGNFreeElement
DGNGetAssocID
DGNGetAttrLinkSize
DGNGetDimension
DGNGetElementExtents
DGNGetElementIndex
DGNGetExtents
DGNGetLinkage
DGNGetShapeFillInfo
DGNGotoElement
DGNLoadTCB
DGNLookupColor
DGNOpen
DGNQuaternionToMatrix
DGNReadElement
DGNResizeElement
DGNRewind
DGNRotationToQuaternion
DGNSetOptions
DGNSetSpatialFilter
DGNStrokeArc
DGNStrokeCurve
DGNTestOpen
DGNTypeToName
DGNUpdateElemCore
DGNUpdateElemCoreExtended
DGNWriteElement
EarlySetConfigOptions
GDALARGetNextUpdatedRegion
GDALARLockBuffer
GDALARUnlockBuffer
GDALAddBand
GDALAddDerivedBandPixelFunc
GDALAddDerivedBandPixelFuncWithArgs
GDALAdjustValueToDataType
GDALAllRegister
GDALApplyGeoTransform
GDALApplyVerticalShiftGrid
GDALApproxTransform
GDALApproxTransformerOwnsSubtransformer
GDALAttributeFreeRawResult
GDALAttributeGetDataType
GDALAttributeGetDimensionCount
GDALAttributeGetDimensionsSize
GDALAttributeGetFullName
GDALAttributeGetName
GDALAttributeGetTotalElementsCount
GDALAttributeReadAsDouble
GDALAttributeReadAsDoubleArray
GDALAttributeReadAsInt
GDALAttributeReadAsIntArray
GDALAttributeReadAsRaw
GDALAttributeReadAsString
GDALAttributeReadAsStringArray
GDALAttributeRelease
GDALAttributeWriteDouble
GDALAttributeWriteDoubleArray
GDALAttributeWriteInt
GDALAttributeWriteRaw
GDALAttributeWriteString
GDALAttributeWriteStringArray
GDALAutoCreateWarpedVRT
GDALAutoCreateWarpedVRTEx
GDALBandGetBestOverviewLevel
GDALBandGetBestOverviewLevel2
GDALBeginAsyncReader
GDALBuildOverviews
GDALBuildOverviewsEx
GDALBuildVRT
GDALBuildVRTOptionsFree
GDALBuildVRTOptionsNew
GDALBuildVRTOptionsSetProgress
GDALCheckBandCount
GDALCheckDatasetDimensions
GDALCheckVersion
GDALChecksumImage
GDALChunkAndWarpImage
GDALChunkAndWarpMulti
GDALCloneColorTable
GDALClonePansharpenOptions
GDALCloneWarpOptions
GDALClose
GDALComposeGeoTransforms
GDALComputeBandStats
GDALComputeMatchingPoints
GDALComputeMedianCutPCT
GDALComputeOvFactor
GDALComputeProximity
GDALComputeRasterMinMax
GDALComputeRasterStatistics
GDALContourGenerate
GDALContourGenerateEx
GDALCopyBits
GDALCopyDatasetFiles
GDALCopyRasterIOExtraArg
GDALCopyWords
GDALCopyWords64
GDALCreate
GDALCreateAndReprojectImage
GDALCreateApproxTransformer
GDALCreateColorRamp
GDALCreateColorTable
GDALCreateCopy
GDALCreateDatasetMaskBand
GDALCreateDriver
GDALCreateGCPRefineTransformer
GDALCreateGCPTransformer
GDALCreateGenImgProjTransformer
GDALCreateGenImgProjTransformer2
GDALCreateGenImgProjTransformer3
GDALCreateGenImgProjTransformer4
GDALCreateGeoLocTransformer
GDALCreateMaskBand
GDALCreateMultiDimensional
GDALCreatePansharpenOperation
GDALCreatePansharpenOptions
GDALCreatePansharpenedVRT
GDALCreateRPCTransformer
GDALCreateRPCTransformerV2
GDALCreateRasterAttributeTable
GDALCreateReprojectionTransformer
GDALCreateReprojectionTransformerEx
GDALCreateScaledProgress
GDALCreateTPSTransformer
GDALCreateWarpOperation
GDALCreateWarpOptions
GDALCreateWarpedVRT
GDALDEMProcessing
GDALDEMProcessingOptionsFree
GDALDEMProcessingOptionsNew
GDALDEMProcessingOptionsSetProgress
GDALDataTypeIsComplex
GDALDataTypeIsConversionLossy
GDALDataTypeIsFloating
GDALDataTypeIsInteger
GDALDataTypeIsSigned
GDALDataTypeUnion
GDALDataTypeUnionWithValue
GDALDatasetAbortSQL
GDALDatasetAddFieldDomain
GDALDatasetAddRelationship
GDALDatasetAdviseRead
GDALDatasetClearStatistics
GDALDatasetCommitTransaction
GDALDatasetCopyLayer
GDALDatasetCopyWholeRaster
GDALDatasetCreateLayer
GDALDatasetDeleteFieldDomain
GDALDatasetDeleteLayer
GDALDatasetDeleteRelationship
GDALDatasetExecuteSQL
GDALDatasetGetFieldDomain
GDALDatasetGetFieldDomainNames
GDALDatasetGetLayer
GDALDatasetGetLayerByName
GDALDatasetGetLayerCount
GDALDatasetGetNextFeature
GDALDatasetGetRelationship
GDALDatasetGetRelationshipNames
GDALDatasetGetRootGroup
GDALDatasetGetStyleTable
GDALDatasetGetTiledVirtualMem
GDALDatasetGetVirtualMem
GDALDatasetIsLayerPrivate
GDALDatasetRasterIO
GDALDatasetRasterIOEx
GDALDatasetReleaseResultSet
GDALDatasetResetReading
GDALDatasetRollbackTransaction
GDALDatasetSetStyleTable
GDALDatasetSetStyleTableDirectly
GDALDatasetStartTransaction
GDALDatasetTestCapability
GDALDatasetUpdateFieldDomain
GDALDatasetUpdateRelationship
GDALDecToDMS
GDALDecToPackedDMS
GDALDeinitGCPs
GDALDeinterleave
GDALDeleteDataset
GDALDeleteRasterNoDataValue
GDALDereferenceDataset
GDALDeregisterDriver
GDALDeserializeTransformer
GDALDeserializeWarpOptions
GDALDestroy
GDALDestroyApproxTransformer
GDALDestroyColorTable
GDALDestroyDriver
GDALDestroyDriverManager
GDALDestroyGCPTransformer
GDALDestroyGenImgProjTransformer
GDALDestroyGeoLocTransformer
GDALDestroyPansharpenOperation
GDALDestroyPansharpenOptions
GDALDestroyRPCTransformer
GDALDestroyRasterAttributeTable
GDALDestroyRelationship
GDALDestroyReprojectionTransformer
GDALDestroyScaledProgress
GDALDestroyTPSTransformer
GDALDestroyTransformer
GDALDestroyWarpOperation
GDALDestroyWarpOptions
GDALDimensionGetDirection
GDALDimensionGetFullName
GDALDimensionGetIndexingVariable
GDALDimensionGetName
GDALDimensionGetSize
GDALDimensionGetType
GDALDimensionRelease
GDALDimensionSetIndexingVariable
GDALDitherRGB2PCT
GDALDummyProgress
GDALDumpOpenDatasets
GDALDuplicateGCPs
GDALEDTComponentCreate
GDALEDTComponentGetName
GDALEDTComponentGetOffset
GDALEDTComponentGetType
GDALEDTComponentRelease
GDALEndAsyncReader
GDALExtendedDataTypeCanConvertTo
GDALExtendedDataTypeCreate
GDALExtendedDataTypeCreateCompound
GDALExtendedDataTypeCreateString
GDALExtendedDataTypeCreateStringEx
GDALExtendedDataTypeEquals
GDALExtendedDataTypeFreeComponents
GDALExtendedDataTypeGetClass
GDALExtendedDataTypeGetComponents
GDALExtendedDataTypeGetMaxStringLength
GDALExtendedDataTypeGetName
GDALExtendedDataTypeGetNumericDataType
GDALExtendedDataTypeGetSize
GDALExtendedDataTypeGetSubType
GDALExtendedDataTypeRelease
GDALExtractRPCInfo
GDALExtractRPCInfoV2
GDALFPolygonize
GDALFillNodata
GDALFillRaster
GDALFindAssociatedAuxFile
GDALFindDataType
GDALFindDataTypeForValue
GDALFlushCache
GDALFlushCacheBlock
GDALFlushRasterCache
GDALGCPTransform
GDALGCPsToGeoTransform
GDALGenImgProjTransform
GDALGeneralCmdLineProcessor
GDALGeoLocTransform
GDALGetAccess
GDALGetActualBlockSize
GDALGetAsyncStatusTypeByName
GDALGetAsyncStatusTypeName
GDALGetBandDataset
GDALGetBandNumber
GDALGetBlockSize
GDALGetCacheMax
GDALGetCacheMax64
GDALGetCacheUsed
GDALGetCacheUsed64
GDALGetColorEntry
GDALGetColorEntryAsRGB
GDALGetColorEntryCount
GDALGetColorInterpretationByName
GDALGetColorInterpretationName
GDALGetDataCoverageStatus
GDALGetDataTypeByName
GDALGetDataTypeName
GDALGetDataTypeSize
GDALGetDataTypeSizeBits
GDALGetDataTypeSizeBytes
GDALGetDatasetDriver
GDALGetDefaultHistogram
GDALGetDefaultHistogramEx
GDALGetDefaultRAT
GDALGetDerivedDatasetDescriptions
GDALGetDescription
GDALGetDriver
GDALGetDriverByName
GDALGetDriverCount
GDALGetDriverCreationOptionList
GDALGetDriverHelpTopic
GDALGetDriverLongName
GDALGetDriverShortName
GDALGetFileList
GDALGetGCPCount
GDALGetGCPProjection
GDALGetGCPSpatialRef
GDALGetGCPs
GDALGetGeoTransform
GDALGetInternalHandle
GDALGetJPEG2000Structure
GDALGetMaskBand
GDALGetMaskFlags
GDALGetMetadata
GDALGetMetadataDomainList
GDALGetMetadataItem
GDALGetNonComplexDataType
GDALGetOpenDatasets
GDALGetOverview
GDALGetOverviewCount
GDALGetPaletteInterpretation
GDALGetPaletteInterpretationName
GDALGetProjectionRef
GDALGetRandomRasterSample
GDALGetRasterAccess
GDALGetRasterBand
GDALGetRasterBandXSize
GDALGetRasterBandYSize
GDALGetRasterCategoryNames
GDALGetRasterColorInterpretation
GDALGetRasterColorTable
GDALGetRasterCount
GDALGetRasterDataType
GDALGetRasterHistogram
GDALGetRasterHistogramEx
GDALGetRasterMaximum
GDALGetRasterMinimum
GDALGetRasterNoDataValue
GDALGetRasterNoDataValueAsInt64
GDALGetRasterNoDataValueAsUInt64
GDALGetRasterOffset
GDALGetRasterSampleOverview
GDALGetRasterSampleOverviewEx
GDALGetRasterScale
GDALGetRasterStatistics
GDALGetRasterUnitType
GDALGetRasterXSize
GDALGetRasterYSize
GDALGetSpatialRef
GDALGetVirtualMemAuto
GDALGrid
GDALGridContextCreate
GDALGridContextFree
GDALGridContextProcess
GDALGridCreate
GDALGridOptionsFree
GDALGridOptionsNew
GDALGridOptionsSetProgress
GDALGroupCreateAttribute
GDALGroupCreateDimension
GDALGroupCreateGroup
GDALGroupCreateMDArray
GDALGroupGetAttribute
GDALGroupGetAttributes
GDALGroupGetDimensions
GDALGroupGetFullName
GDALGroupGetGroupNames
GDALGroupGetMDArrayNames
GDALGroupGetName
GDALGroupGetStructuralInfo
GDALGroupGetVectorLayerNames
GDALGroupOpenGroup
GDALGroupOpenGroupFromFullname
GDALGroupOpenMDArray
GDALGroupOpenMDArrayFromFullname
GDALGroupOpenVectorLayer
GDALGroupRelease
GDALGroupResolveMDArray
GDALHasArbitraryOverviews
GDALHasTriangulation
GDALIdentifyDriver
GDALIdentifyDriverEx
GDALInfo
GDALInfoOptionsFree
GDALInfoOptionsNew
GDALInitGCPs
GDALInitializeWarpedVRT
GDALInvGeoTransform
GDALIsInGlobalDestructor
GDALIsMaskBand
GDALLoadOziMapFile
GDALLoadTabFile
GDALLoadWorldFile
GDALMDArrayAdviseRead
GDALMDArrayAdviseReadEx
GDALMDArrayAsClassicDataset
GDALMDArrayCache
GDALMDArrayComputeStatistics
GDALMDArrayCreateAttribute
GDALMDArrayGetAttribute
GDALMDArrayGetAttributes
GDALMDArrayGetBlockSize
GDALMDArrayGetCoordinateVariables
GDALMDArrayGetDataType
GDALMDArrayGetDimensionCount
GDALMDArrayGetDimensions
GDALMDArrayGetFullName
GDALMDArrayGetMask
GDALMDArrayGetName
GDALMDArrayGetNoDataValueAsDouble
GDALMDArrayGetNoDataValueAsInt64
GDALMDArrayGetNoDataValueAsUInt64
GDALMDArrayGetOffset
GDALMDArrayGetOffsetEx
GDALMDArrayGetProcessingChunkSize
GDALMDArrayGetRawNoDataValue
GDALMDArrayGetResampled
GDALMDArrayGetScale
GDALMDArrayGetScaleEx
GDALMDArrayGetSpatialRef
GDALMDArrayGetStatistics
GDALMDArrayGetStructuralInfo
GDALMDArrayGetTotalElementsCount
GDALMDArrayGetUnit
GDALMDArrayGetUnscaled
GDALMDArrayGetView
GDALMDArrayRead
GDALMDArrayRelease
GDALMDArraySetNoDataValueAsDouble
GDALMDArraySetNoDataValueAsInt64
GDALMDArraySetNoDataValueAsUInt64
GDALMDArraySetOffset
GDALMDArraySetOffsetEx
GDALMDArraySetRawNoDataValue
GDALMDArraySetScale
GDALMDArraySetScaleEx
GDALMDArraySetSpatialRef
GDALMDArraySetUnit
GDALMDArrayTranspose
GDALMDArrayWrite
GDALMultiDimInfo
GDALMultiDimInfoOptionsFree
GDALMultiDimInfoOptionsNew
GDALMultiDimTranslate
GDALMultiDimTranslateOptionsFree
GDALMultiDimTranslateOptionsNew
GDALMultiDimTranslateOptionsSetProgress
GDALNearblack
GDALNearblackOptionsFree
GDALNearblackOptionsNew
GDALNearblackOptionsSetProgress
GDALOpen
GDALOpenEx
GDALOpenShared
GDALOpenVerticalShiftGrid
GDALOvLevelAdjust
GDALOvLevelAdjust2
GDALOverviewMagnitudeCorrection
GDALPackedDMSToDec
GDALPansharpenProcessRegion
GDALPolygonize
GDALProxyPoolDatasetAddSrcBandDescription
GDALProxyPoolDatasetCreate
GDALProxyPoolDatasetDelete
GDALRATChangesAreWrittenToFile
GDALRATClone
GDALRATCreateColumn
GDALRATDumpReadable
GDALRATGetColOfUsage
GDALRATGetColumnCount
GDALRATGetLinearBinning
GDALRATGetNameOfCol
GDALRATGetRowCount
GDALRATGetRowOfValue
GDALRATGetTableType
GDALRATGetTypeOfCol
GDALRATGetUsageOfCol
GDALRATGetValueAsDouble
GDALRATGetValueAsInt
GDALRATGetValueAsString
GDALRATInitializeFromColorTable
GDALRATRemoveStatistics
GDALRATSerializeJSON
GDALRATSetLinearBinning
GDALRATSetRowCount
GDALRATSetTableType
GDALRATSetValueAsDouble
GDALRATSetValueAsInt
GDALRATSetValueAsString
GDALRATTranslateToColorTable
GDALRATValuesIOAsDouble
GDALRATValuesIOAsInteger
GDALRATValuesIOAsString
GDALRPCTransform
GDALRasterAdviseRead
GDALRasterBandAsMDArray
GDALRasterBandCopyWholeRaster
GDALRasterBandGetTiledVirtualMem
GDALRasterBandGetVirtualMem
GDALRasterIO
GDALRasterIOEx
GDALRasterize
GDALRasterizeGeometries
GDALRasterizeGeometriesInt64
GDALRasterizeLayers
GDALRasterizeLayersBuf
GDALRasterizeOptionsFree
GDALRasterizeOptionsNew
GDALRasterizeOptionsSetProgress
GDALReadBlock
GDALReadOziMapFile
GDALReadTabFile
GDALReadWorldFile
GDALReadWorldFile2
GDALReferenceDataset
GDALRegenerateOverviews
GDALRegenerateOverviewsEx
GDALRegisterDriver
GDALRegister_AAIGrid
GDALRegister_ACE2
GDALRegister_ADRG
GDALRegister_AIGrid
GDALRegister_ARG
GDALRegister_AirSAR
GDALRegister_BIGGIF
GDALRegister_BLX
GDALRegister_BMP
GDALRegister_BSB
GDALRegister_BT
GDALRegister_BYN
GDALRegister_CALS
GDALRegister_CEOS
GDALRegister_COASP
GDALRegister_COG
GDALRegister_COSAR
GDALRegister_CPG
GDALRegister_CTG
GDALRegister_CTable2
GDALRegister_DIMAP
GDALRegister_DIPEx
GDALRegister_DOQ1
GDALRegister_DOQ2
GDALRegister_DTED
GDALRegister_Derived
GDALRegister_ECRGTOC
GDALRegister_EHdr
GDALRegister_EIR
GDALRegister_ELAS
GDALRegister_ENVI
GDALRegister_ERS
GDALRegister_ESRIC
GDALRegister_Envisat
GDALRegister_FAST
GDALRegister_FIT
GDALRegister_GFF
GDALRegister_GIF
GDALRegister_GRASSASCIIGrid
GDALRegister_GRIB
GDALRegister_GS7BG
GDALRegister_GSAG
GDALRegister_GSBG
GDALRegister_GSC
GDALRegister_GTX
GDALRegister_GTiff
GDALRegister_GXF
GDALRegister_GenBin
GDALRegister_HF2
GDALRegister_HFA
GDALRegister_HKV
GDALRegister_IDRISI
GDALRegister_ILWIS
GDALRegister_IRIS
GDALRegister_ISCE
GDALRegister_ISG
GDALRegister_ISIS2
GDALRegister_ISIS3
GDALRegister_JDEM
GDALRegister_JPEG
GDALRegister_KMLSUPEROVERLAY
GDALRegister_KRO
GDALRegister_L1B
GDALRegister_LAN
GDALRegister_LCP
GDALRegister_LOSLAS
GDALRegister_Leveller
GDALRegister_MAP
GDALRegister_MBTiles
GDALRegister_MEM
GDALRegister_MFF
GDALRegister_MSGN
GDALRegister_NDF
GDALRegister_NGSGEOID
GDALRegister_NITF
GDALRegister_NTv2
GDALRegister_NWT_GRC
GDALRegister_NWT_GRD
GDALRegister_OGCAPI
GDALRegister_OZI
GDALRegister_PALSARJaxa
GDALRegister_PAux
GDALRegister_PDS
GDALRegister_PDS4
GDALRegister_PNM
GDALRegister_PRF
GDALRegister_R
GDALRegister_RIK
GDALRegister_RMF
GDALRegister_ROIPAC
GDALRegister_RPFTOC
GDALRegister_RRASTER
GDALRegister_RS2
GDALRegister_Rasterlite
GDALRegister_SAFE
GDALRegister_SAGA
GDALRegister_SAR_CEOS
GDALRegister_SDTS
GDALRegister_SENTINEL2
GDALRegister_SGI
GDALRegister_SIGDEM
GDALRegister_SNODAS
GDALRegister_SRP
GDALRegister_SRTMHGT
GDALRegister_STACIT
GDALRegister_STACTA
GDALRegister_TGA
GDALRegister_TIL
GDALRegister_TSX
GDALRegister_Terragen
GDALRegister_USGSDEM
GDALRegister_VICAR
GDALRegister_VRT
GDALRegister_WMTS
GDALRegister_XPM
GDALRegister_XYZ
GDALRegister_ZMap
GDALRegister_Zarr
GDALRegister_mrf
GDALRelationshipCreate
GDALRelationshipGetBackwardPathLabel
GDALRelationshipGetCardinality
GDALRelationshipGetForwardPathLabel
GDALRelationshipGetLeftMappingTableFields
GDALRelationshipGetLeftTableFields
GDALRelationshipGetLeftTableName
GDALRelationshipGetMappingTableName
GDALRelationshipGetName
GDALRelationshipGetRelatedTableType
GDALRelationshipGetRightMappingTableFields
GDALRelationshipGetRightTableFields
GDALRelationshipGetRightTableName
GDALRelationshipGetType
GDALRelationshipSetBackwardPathLabel
GDALRelationshipSetForwardPathLabel
GDALRelationshipSetLeftMappingTableFields
GDALRelationshipSetLeftTableFields
GDALRelationshipSetMappingTableName
GDALRelationshipSetRelatedTableType
GDALRelationshipSetRightMappingTableFields
GDALRelationshipSetRightTableFields
GDALRelationshipSetType
GDALReleaseArrays
GDALReleaseAttributes
GDALReleaseDataset
GDALReleaseDimensions
GDALRenameDataset
GDALReprojectImage
GDALReprojectionTransform
GDALScaledProgress
GDALSerializeTransformer
GDALSerializeWarpOptions
GDALSetCacheMax
GDALSetCacheMax64
GDALSetColorEntry
GDALSetDefaultHistogram
GDALSetDefaultHistogramEx
GDALSetDefaultRAT
GDALSetDescription
GDALSetGCPs
GDALSetGCPs2
GDALSetGenImgProjTransformerDstGeoTransform
GDALSetGeoTransform
GDALSetMetadata
GDALSetMetadataItem
GDALSetProjection
GDALSetRasterCategoryNames
GDALSetRasterColorInterpretation
GDALSetRasterColorTable
GDALSetRasterNoDataValue
GDALSetRasterNoDataValueAsInt64
GDALSetRasterNoDataValueAsUInt64
GDALSetRasterOffset
GDALSetRasterScale
GDALSetRasterStatistics
GDALSetRasterUnitType
GDALSetSpatialRef
GDALSieveFilter
GDALSimpleImageWarp
GDALSuggestedWarpOutput
GDALSuggestedWarpOutput2
GDALSwapWords
GDALSwapWordsEx
GDALTPSTransform
GDALTermProgress
GDALTransformGeolocations
GDALTranslate
GDALTranslateOptionsFree
GDALTranslateOptionsNew
GDALTranslateOptionsSetProgress
GDALTriangulationComputeBarycentricCoefficients
GDALTriangulationComputeBarycentricCoordinates
GDALTriangulationCreateDelaunay
GDALTriangulationFindFacetBruteForce
GDALTriangulationFindFacetDirected
GDALTriangulationFree
GDALUseTransformer
GDALValidateCreationOptions
GDALVectorTranslate
GDALVectorTranslateOptionsFree
GDALVectorTranslateOptionsNew
GDALVectorTranslateOptionsSetProgress
GDALVersionInfo
GDALViewshedGenerate
GDALWarp
GDALWarpAppOptionsFree
GDALWarpAppOptionsNew
GDALWarpAppOptionsSetProgress
GDALWarpAppOptionsSetQuiet
GDALWarpAppOptionsSetWarpOption
GDALWarpCutlineMasker
GDALWarpDstAlphaMasker
GDALWarpInitDefaultBandMapping
GDALWarpInitDstNoDataImag
GDALWarpInitDstNoDataReal
GDALWarpInitNoDataReal
GDALWarpInitSrcNoDataImag
GDALWarpInitSrcNoDataReal
GDALWarpNoDataMasker
GDALWarpRegion
GDALWarpRegionToBuffer
GDALWarpResolveWorkingDataType
GDALWarpSrcAlphaMasker
GDALWarpSrcMaskMasker
GDALWriteBlock
GDALWriteWorldFile
GDAL_CG_Create
GDAL_CG_Destroy
GDAL_CG_FeedLine
GNMCastToGenericNetwork
GNMCastToNetwork
GNMChangeAllBlockState
GNMChangeBlockState
GNMConnectFeatures
GNMConnectPointsByLines
GNMCreateRule
GNMDeleteAllRules
GNMDeleteRule
GNMDisconnectAll
GNMDisconnectFeatures
GNMDisconnectFeaturesWithId
GNMGetFeatureByGlobalFID
GNMGetName
GNMGetPath
GNMGetRules
GNMGetVersion
GNMReconnectFeatures
GOA2GetAccessToken
GOA2GetAccessTokenFromCloudEngineVM
GOA2GetAccessTokenFromServiceAccount
GOA2GetAuthorizationURL
GOA2GetRefreshToken
GTIFAttachPROJContext
GTIFFBuildOverviews
GTIFGetOGISDefn
GTIFGetPROJContext
GTIFMemBufFromWkt
GTIFSetFromOGISDefn
GTIFWktFromMemBuf
GetGDALDriverManager
HFAAuxBuildOverviews
HFAClose
HFACreate
HFACreateLL
HFACreateOverview
HFADumpDictionary
HFADumpTree
HFAEvaluateXFormStack
HFAFlush
HFAGetBandInfo
HFAGetBandNoData
HFAGetDataRange
HFAGetDataTypeBits
HFAGetDataTypeName
HFAGetDatum
HFAGetGeoTransform
HFAGetIGEFilename
HFAGetMapInfo
HFAGetMetadata
HFAGetOverviewCount
HFAGetOverviewInfo
HFAGetOverviewRasterBlock
HFAGetOverviewRasterBlockEx
HFAGetPCT
HFAGetPEString
HFAGetProParameters
HFAGetRasterBlock
HFAGetRasterBlockEx
HFAGetRasterInfo
HFAOpen
HFAReadCameraModel
HFAReadElevationUnit
HFAReadXFormStack
HFASetBandNoData
HFASetDatum
HFASetGeoTransform
HFASetMapInfo
HFASetMetadata
HFASetOverviewRasterBlock
HFASetPCT
HFASetPEString
HFASetProParameters
HFASetRasterBlock
HFAWriteXFormStack
LibgeotiffOneTimeInit
MEMCreateRasterBand
MEMCreateRasterBandEx
NITFClose
NITFCollectAttachments
NITFCreate
NITFDESAccess
NITFDESDeaccess
NITFDESExtractShapefile
NITFDESFreeTREData
NITFDESGetTRE
NITFDESGetXml
NITFFindTRE
NITFFindTREByIndex
NITFGetSeriesInfo
NITFIHFieldOffset
NITFImageAccess
NITFImageDeaccess
NITFOpen
NITFRPCGeoToImage
NITFReadBLOCKA
NITFReadCSEXRA
NITFReadICHIPB
NITFReadImageBlock
NITFReadImageLine
NITFReadPIAIMC
NITFReadRPC00B
NITFReadSTDIDC
NITFReadUSE00A
NITFReconcileAttachments
NITFWriteIGEOLO
NITFWriteImageBlock
NITFWriteImageLine
NITFWriteLUT
NITF_WGS84_Geocentric_Latitude_To_Geodetic_Latitude
OCTClone
OCTCoordinateTransformationOptionsSetAreaOfInterest
OCTCoordinateTransformationOptionsSetBallparkAllowed
OCTCoordinateTransformationOptionsSetDesiredAccuracy
OCTCoordinateTransformationOptionsSetOperation
OCTDestroyCoordinateTransformation
OCTDestroyCoordinateTransformationOptions
OCTGetInverse
OCTGetSourceCS
OCTGetTargetCS
OCTNewCoordinateTransformation
OCTNewCoordinateTransformationEx
OCTNewCoordinateTransformationOptions
OCTTransform
OCTTransform4D
OCTTransform4DWithErrorCodes
OCTTransformBounds
OCTTransformEx
OGR2SQLITE_static_register
OGRBuildPolygonFromEdges
OGRCalloc
OGRCleanupAll
OGRContourWriter
OGRCreatePreparedGeometry
OGRDeregisterDriver
OGRDestroyPreparedGeometry
OGRFree
OGRGeocode
OGRGeocodeCreateSession
OGRGeocodeDestroySession
OGRGeocodeFreeResult
OGRGeocodeReverse
OGRGeometryTypeToName
OGRGetDriver
OGRGetDriverByName
OGRGetDriverCount
OGRGetGEOSVersion
OGRGetGenerate_DB2_V72_BYTE_ORDER
OGRGetNonLinearGeometriesEnabledFlag
OGRGetOpenDS
OGRGetOpenDSCount
OGRHasPreparedGeometrySupport
OGRMalloc
OGRMergeGeometryTypes
OGRMergeGeometryTypesEx
OGROpen
OGROpenShared
OGRParseDate
OGRPreparedGeometryContains
OGRPreparedGeometryIntersects
OGRRealloc
OGRRegisterAll
OGRRegisterDriver
OGRReleaseDataSource
OGRSetGenerate_DB2_V72_BYTE_ORDER
OGRSetNonLinearGeometriesEnabledFlag
OGR_AreTypeSubTypeCompatible
OGR_CodedFldDomain_Create
OGR_CodedFldDomain_GetEnumeration
OGR_DS_CopyLayer
OGR_DS_CreateLayer
OGR_DS_DeleteLayer
OGR_DS_Dereference
OGR_DS_Destroy
OGR_DS_ExecuteSQL
OGR_DS_GetDriver
OGR_DS_GetLayer
OGR_DS_GetLayerByName
OGR_DS_GetLayerCount
OGR_DS_GetName
OGR_DS_GetRefCount
OGR_DS_GetStyleTable
OGR_DS_GetSummaryRefCount
OGR_DS_Reference
OGR_DS_ReleaseResultSet
OGR_DS_SetStyleTable
OGR_DS_SetStyleTableDirectly
OGR_DS_SyncToDisk
OGR_DS_TestCapability
OGR_Dr_CopyDataSource
OGR_Dr_CreateDataSource
OGR_Dr_DeleteDataSource
OGR_Dr_GetName
OGR_Dr_Open
OGR_Dr_TestCapability
OGR_FD_AddFieldDefn
OGR_FD_AddGeomFieldDefn
OGR_FD_Create
OGR_FD_DeleteFieldDefn
OGR_FD_DeleteGeomFieldDefn
OGR_FD_Dereference
OGR_FD_Destroy
OGR_FD_GetFieldCount
OGR_FD_GetFieldDefn
OGR_FD_GetFieldIndex
OGR_FD_GetGeomFieldCount
OGR_FD_GetGeomFieldDefn
OGR_FD_GetGeomFieldIndex
OGR_FD_GetGeomType
OGR_FD_GetName
OGR_FD_GetReferenceCount
OGR_FD_IsGeometryIgnored
OGR_FD_IsSame
OGR_FD_IsStyleIgnored
OGR_FD_Reference
OGR_FD_Release
OGR_FD_ReorderFieldDefns
OGR_FD_SetGeomType
OGR_FD_SetGeometryIgnored
OGR_FD_SetStyleIgnored
OGR_F_Clone
OGR_F_Create
OGR_F_Destroy
OGR_F_DumpReadable
OGR_F_Equal
OGR_F_FillUnsetWithDefault
OGR_F_GetDefnRef
OGR_F_GetFID
OGR_F_GetFieldAsBinary
OGR_F_GetFieldAsDateTime
OGR_F_GetFieldAsDateTimeEx
OGR_F_GetFieldAsDouble
OGR_F_GetFieldAsDoubleList
OGR_F_GetFieldAsInteger
OGR_F_GetFieldAsInteger64
OGR_F_GetFieldAsInteger64List
OGR_F_GetFieldAsIntegerList
OGR_F_GetFieldAsString
OGR_F_GetFieldAsStringList
OGR_F_GetFieldCount
OGR_F_GetFieldDefnRef
OGR_F_GetFieldIndex
OGR_F_GetGeomFieldCount
OGR_F_GetGeomFieldDefnRef
OGR_F_GetGeomFieldIndex
OGR_F_GetGeomFieldRef
OGR_F_GetGeometryRef
OGR_F_GetNativeData
OGR_F_GetNativeMediaType
OGR_F_GetRawFieldRef
OGR_F_GetStyleString
OGR_F_GetStyleTable
OGR_F_IsFieldNull
OGR_F_IsFieldSet
OGR_F_IsFieldSetAndNotNull
OGR_F_SetFID
OGR_F_SetFieldBinary
OGR_F_SetFieldDateTime
OGR_F_SetFieldDateTimeEx
OGR_F_SetFieldDouble
OGR_F_SetFieldDoubleList
OGR_F_SetFieldInteger
OGR_F_SetFieldInteger64
OGR_F_SetFieldInteger64List
OGR_F_SetFieldIntegerList
OGR_F_SetFieldNull
OGR_F_SetFieldRaw
OGR_F_SetFieldString
OGR_F_SetFieldStringList
OGR_F_SetFrom
OGR_F_SetFromWithMap
OGR_F_SetGeomField
OGR_F_SetGeomFieldDirectly
OGR_F_SetGeometry
OGR_F_SetGeometryDirectly
OGR_F_SetNativeData
OGR_F_SetNativeMediaType
OGR_F_SetStyleString
OGR_F_SetStyleStringDirectly
OGR_F_SetStyleTable
OGR_F_SetStyleTableDirectly
OGR_F_StealGeometry
OGR_F_StealGeometryEx
OGR_F_UnsetField
OGR_F_Validate
OGR_FldDomain_Destroy
OGR_FldDomain_GetDescription
OGR_FldDomain_GetDomainType
OGR_FldDomain_GetFieldSubType
OGR_FldDomain_GetFieldType
OGR_FldDomain_GetMergePolicy
OGR_FldDomain_GetName
OGR_FldDomain_GetSplitPolicy
OGR_FldDomain_SetMergePolicy
OGR_FldDomain_SetSplitPolicy
OGR_Fld_Create
OGR_Fld_Destroy
OGR_Fld_GetAlternativeNameRef
OGR_Fld_GetDefault
OGR_Fld_GetDomainName
OGR_Fld_GetJustify
OGR_Fld_GetNameRef
OGR_Fld_GetPrecision
OGR_Fld_GetSubType
OGR_Fld_GetType
OGR_Fld_GetWidth
OGR_Fld_IsDefaultDriverSpecific
OGR_Fld_IsIgnored
OGR_Fld_IsNullable
OGR_Fld_IsUnique
OGR_Fld_Set
OGR_Fld_SetAlternativeName
OGR_Fld_SetDefault
OGR_Fld_SetDomainName
OGR_Fld_SetIgnored
OGR_Fld_SetJustify
OGR_Fld_SetName
OGR_Fld_SetNullable
OGR_Fld_SetPrecision
OGR_Fld_SetSubType
OGR_Fld_SetType
OGR_Fld_SetUnique
OGR_Fld_SetWidth
OGR_GFld_Create
OGR_GFld_Destroy
OGR_GFld_GetNameRef
OGR_GFld_GetSpatialRef
OGR_GFld_GetType
OGR_GFld_IsIgnored
OGR_GFld_IsNullable
OGR_GFld_SetIgnored
OGR_GFld_SetName
OGR_GFld_SetNullable
OGR_GFld_SetSpatialRef
OGR_GFld_SetType
OGR_GT_Flatten
OGR_GT_GetCollection
OGR_GT_GetCurve
OGR_GT_GetLinear
OGR_GT_HasM
OGR_GT_HasZ
OGR_GT_IsCurve
OGR_GT_IsNonLinear
OGR_GT_IsSubClassOf
OGR_GT_IsSurface
OGR_GT_SetM
OGR_GT_SetModifier
OGR_GT_SetZ
OGR_G_AddGeometry
OGR_G_AddGeometryDirectly
OGR_G_AddPoint
OGR_G_AddPointM
OGR_G_AddPointZM
OGR_G_AddPoint_2D
OGR_G_ApproximateArcAngles
OGR_G_Area
OGR_G_AssignSpatialReference
OGR_G_Boundary
OGR_G_Buffer
OGR_G_Centroid
OGR_G_Clone
OGR_G_CloseRings
OGR_G_ConcaveHull
OGR_G_Contains
OGR_G_ConvexHull
OGR_G_CoordinateDimension
OGR_G_CreateFromFgf
OGR_G_CreateFromGML
OGR_G_CreateFromGMLTree
OGR_G_CreateFromWkb
OGR_G_CreateFromWkbEx
OGR_G_CreateFromWkt
OGR_G_CreateGeometry
OGR_G_CreateGeometryFromEsriJson
OGR_G_CreateGeometryFromJson
OGR_G_Crosses
OGR_G_DelaunayTriangulation
OGR_G_DestroyGeometry
OGR_G_Difference
OGR_G_Disjoint
OGR_G_Distance
OGR_G_Distance3D
OGR_G_DumpReadable
OGR_G_Empty
OGR_G_Equal
OGR_G_Equals
OGR_G_ExportEnvelopeToGMLTree
OGR_G_ExportToGML
OGR_G_ExportToGMLEx
OGR_G_ExportToGMLTree
OGR_G_ExportToIsoWkb
OGR_G_ExportToIsoWkt
OGR_G_ExportToJson
OGR_G_ExportToJsonEx
OGR_G_ExportToKML
OGR_G_ExportToWkb
OGR_G_ExportToWkt
OGR_G_FlattenTo2D
OGR_G_ForceTo
OGR_G_ForceToLineString
OGR_G_ForceToMultiLineString
OGR_G_ForceToMultiPoint
OGR_G_ForceToMultiPolygon
OGR_G_ForceToPolygon
OGR_G_GetArea
OGR_G_GetBoundary
OGR_G_GetCoordinateDimension
OGR_G_GetCurveGeometry
OGR_G_GetDimension
OGR_G_GetEnvelope
OGR_G_GetEnvelope3D
OGR_G_GetGeometryCount
OGR_G_GetGeometryName
OGR_G_GetGeometryRef
OGR_G_GetGeometryType
OGR_G_GetLinearGeometry
OGR_G_GetM
OGR_G_GetPoint
OGR_G_GetPointCount
OGR_G_GetPointZM
OGR_G_GetPoints
OGR_G_GetPointsZM
OGR_G_GetSpatialReference
OGR_G_GetX
OGR_G_GetY
OGR_G_GetZ
OGR_G_HasCurveGeometry
OGR_G_ImportFromWkb
OGR_G_ImportFromWkt
OGR_G_Intersect
OGR_G_Intersection
OGR_G_Intersects
OGR_G_Is3D
OGR_G_IsEmpty
OGR_G_IsMeasured
OGR_G_IsRing
OGR_G_IsSimple
OGR_G_IsValid
OGR_G_Length
OGR_G_MakeValid
OGR_G_MakeValidEx
OGR_G_Normalize
OGR_G_Overlaps
OGR_G_PointOnSurface
OGR_G_Polygonize
OGR_G_RemoveGeometry
OGR_G_RemoveLowerDimensionSubGeoms
OGR_G_Segmentize
OGR_G_Set3D
OGR_G_SetCoordinateDimension
OGR_G_SetMeasured
OGR_G_SetPoint
OGR_G_SetPointCount
OGR_G_SetPointM
OGR_G_SetPointZM
OGR_G_SetPoint_2D
OGR_G_SetPoints
OGR_G_SetPointsZM
OGR_G_Simplify
OGR_G_SimplifyPreserveTopology
OGR_G_SwapXY
OGR_G_SymDifference
OGR_G_SymmetricDifference
OGR_G_Touches
OGR_G_Transform
OGR_G_TransformTo
OGR_G_Union
OGR_G_UnionCascaded
OGR_G_Value
OGR_G_Within
OGR_G_WkbSize
OGR_G_WkbSizeEx
OGR_GeomTransformer_Create
OGR_GeomTransformer_Destroy
OGR_GeomTransformer_Transform
OGR_GetFieldSubTypeName
OGR_GetFieldTypeName
OGR_GlobFldDomain_Create
OGR_GlobFldDomain_GetGlob
OGR_L_AlterFieldDefn
OGR_L_AlterGeomFieldDefn
OGR_L_Clip
OGR_L_CommitTransaction
OGR_L_CreateFeature
OGR_L_CreateField
OGR_L_CreateGeomField
OGR_L_DeleteFeature
OGR_L_DeleteField
OGR_L_Dereference
OGR_L_Erase
OGR_L_FindFieldIndex
OGR_L_GetArrowStream
OGR_L_GetExtent
OGR_L_GetExtentEx
OGR_L_GetFIDColumn
OGR_L_GetFeature
OGR_L_GetFeatureCount
OGR_L_GetFeaturesRead
OGR_L_GetGeomType
OGR_L_GetGeometryColumn
OGR_L_GetGeometryTypes
OGR_L_GetLayerDefn
OGR_L_GetName
OGR_L_GetNextFeature
OGR_L_GetRefCount
OGR_L_GetSpatialFilter
OGR_L_GetSpatialRef
OGR_L_GetStyleTable
OGR_L_Identity
OGR_L_Intersection
OGR_L_Reference
OGR_L_Rename
OGR_L_ReorderField
OGR_L_ReorderFields
OGR_L_ResetReading
OGR_L_RollbackTransaction
OGR_L_SetAttributeFilter
OGR_L_SetFeature
OGR_L_SetIgnoredFields
OGR_L_SetNextByIndex
OGR_L_SetSpatialFilter
OGR_L_SetSpatialFilterEx
OGR_L_SetSpatialFilterRect
OGR_L_SetSpatialFilterRectEx
OGR_L_SetStyleTable
OGR_L_SetStyleTableDirectly
OGR_L_StartTransaction
OGR_L_SymDifference
OGR_L_SyncToDisk
OGR_L_TestCapability
OGR_L_Union
OGR_L_Update
OGR_L_UpsertFeature
OGR_RangeFldDomain_Create
OGR_RangeFldDomain_GetMax
OGR_RangeFldDomain_GetMin
OGR_RawField_IsNull
OGR_RawField_IsUnset
OGR_RawField_SetNull
OGR_RawField_SetUnset
OGR_SM_AddPart
OGR_SM_AddStyle
OGR_SM_Create
OGR_SM_Destroy
OGR_SM_GetPart
OGR_SM_GetPartCount
OGR_SM_InitFromFeature
OGR_SM_InitStyleString
OGR_STBL_AddStyle
OGR_STBL_Create
OGR_STBL_Destroy
OGR_STBL_Find
OGR_STBL_GetLastStyleName
OGR_STBL_GetNextStyle
OGR_STBL_LoadStyleTable
OGR_STBL_ResetStyleStringReading
OGR_STBL_SaveStyleTable
OGR_ST_Create
OGR_ST_Destroy
OGR_ST_GetParamDbl
OGR_ST_GetParamNum
OGR_ST_GetParamStr
OGR_ST_GetRGBFromString
OGR_ST_GetStyleString
OGR_ST_GetType
OGR_ST_GetUnit
OGR_ST_SetParamDbl
OGR_ST_SetParamNum
OGR_ST_SetParamStr
OGR_ST_SetUnit
OSRAddGuessedTOWGS84
OSRAutoIdentifyEPSG
OSRAxisEnumToName
OSRCalcInvFlattening
OSRCalcSemiMinorFromInvFlattening
OSRCleanup
OSRClone
OSRCloneGeogCS
OSRConvertToOtherProjection
OSRCopyGeogCSFrom
OSRDemoteTo2D
OSRDereference
OSRDestroyCRSInfoList
OSRDestroySpatialReference
OSREPSGTreatsAsLatLong
OSREPSGTreatsAsNorthingEasting
OSRExportToERM
OSRExportToMICoordSys
OSRExportToPCI
OSRExportToPROJJSON
OSRExportToPanorama
OSRExportToPrettyWkt
OSRExportToProj4
OSRExportToUSGS
OSRExportToWkt
OSRExportToWktEx
OSRExportToXML
OSRFindMatches
OSRFreeSRSArray
OSRGetAngularUnits
OSRGetAreaOfUse
OSRGetAttrValue
OSRGetAuthorityCode
OSRGetAuthorityName
OSRGetAxesCount
OSRGetAxis
OSRGetAxisMappingStrategy
OSRGetCRSInfoListFromDatabase
OSRGetCoordinateEpoch
OSRGetDataAxisToSRSAxisMapping
OSRGetInvFlattening
OSRGetLinearUnits
OSRGetName
OSRGetNormProjParm
OSRGetPROJAuxDbPaths
OSRGetPROJEnableNetwork
OSRGetPROJSearchPaths
OSRGetPROJVersion
OSRGetPrimeMeridian
OSRGetProjParm
OSRGetSemiMajor
OSRGetSemiMinor
OSRGetTOWGS84
OSRGetTargetLinearUnits
OSRGetUTMZone
OSRImportFromDict
OSRImportFromEPSG
OSRImportFromEPSGA
OSRImportFromERM
OSRImportFromESRI
OSRImportFromMICoordSys
OSRImportFromOzi
OSRImportFromPCI
OSRImportFromPanorama
OSRImportFromProj4
OSRImportFromUSGS
OSRImportFromUrl
OSRImportFromWkt
OSRImportFromXML
OSRIsCompound
OSRIsDerivedGeographic
OSRIsDynamic
OSRIsGeocentric
OSRIsGeographic
OSRIsLocal
OSRIsProjected
OSRIsSame
OSRIsSameEx
OSRIsSameGeogCS
OSRIsSameVertCS
OSRIsVertical
OSRMorphFromESRI
OSRMorphToESRI
OSRNewSpatialReference
OSRPromoteTo3D
OSRReference
OSRRelease
OSRSetACEA
OSRSetAE
OSRSetAngularUnits
OSRSetAttrValue
OSRSetAuthority
OSRSetAxes
OSRSetAxisMappingStrategy
OSRSetBonne
OSRSetCEA
OSRSetCS
OSRSetCompoundCS
OSRSetCoordinateEpoch
OSRSetDataAxisToSRSAxisMapping
OSRSetEC
OSRSetEckert
OSRSetEckertIV
OSRSetEckertVI
OSRSetEquirectangular
OSRSetEquirectangular2
OSRSetFromUserInput
OSRSetGEOS
OSRSetGH
OSRSetGS
OSRSetGaussSchreiberTMercator
OSRSetGeocCS
OSRSetGeogCS
OSRSetGnomonic
OSRSetHOM
OSRSetHOM2PNO
OSRSetHOMAC
OSRSetIGH
OSRSetIWMPolyconic
OSRSetKrovak
OSRSetLAEA
OSRSetLCC
OSRSetLCC1SP
OSRSetLCCB
OSRSetLinearUnits
OSRSetLinearUnitsAndUpdateParameters
OSRSetLocalCS
OSRSetMC
OSRSetMercator
OSRSetMercator2SP
OSRSetMollweide
OSRSetNZMG
OSRSetNormProjParm
OSRSetOS
OSRSetOrthographic
OSRSetPROJAuxDbPaths
OSRSetPROJEnableNetwork
OSRSetPROJSearchPaths
OSRSetPS
OSRSetPolyconic
OSRSetProjCS
OSRSetProjParm
OSRSetProjection
OSRSetQSC
OSRSetRobinson
OSRSetSCH
OSRSetSOC
OSRSetSinusoidal
OSRSetStatePlane
OSRSetStatePlaneWithUnits
OSRSetStereographic
OSRSetTM
OSRSetTMG
OSRSetTMSO
OSRSetTMVariant
OSRSetTOWGS84
OSRSetTPED
OSRSetTargetLinearUnits
OSRSetUTM
OSRSetVDG
OSRSetVertCS
OSRSetVerticalPerspective
OSRSetWagner
OSRSetWellKnownGeogCS
OSRStripVertical
OSRValidate
ParseAlgorithmAndOptions
RPCInfoToMD
RPCInfoV2ToMD
RPFTOCFree
RPFTOCRead
RPFTOCReadFromBuffer
RegisterGNMDatabase
RegisterGNMFile
RegisterOGRAVCBin
RegisterOGRAVCE00
RegisterOGRCSV
RegisterOGRDGN
RegisterOGRDXF
RegisterOGREDIGEO
RegisterOGRESRIJSON
RegisterOGRFlatGeobuf
RegisterOGRGML
RegisterOGRGMT
RegisterOGRGPSBabel
RegisterOGRGPX
RegisterOGRGeoJSON
RegisterOGRGeoJSONSeq
RegisterOGRGeoPackage
RegisterOGRGeoRSS
RegisterOGRGeoconcept
RegisterOGRIdrisi
RegisterOGRJML
RegisterOGRKML
RegisterOGRLVBAG
RegisterOGRMEM
RegisterOGRMVT
RegisterOGRMapML
RegisterOGRNTF
RegisterOGRODS
RegisterOGROSM
RegisterOGROpenFileGDB
RegisterOGRPDS
RegisterOGRPGDump
RegisterOGRS57
RegisterOGRSDTS
RegisterOGRSQLite
RegisterOGRSVG
RegisterOGRSXF
RegisterOGRSelafin
RegisterOGRShape
RegisterOGRTAB
RegisterOGRTiger
RegisterOGRTopoJSON
RegisterOGRVDV
RegisterOGRVRT
RegisterOGRWAsP
RegisterOGRXLSX
SetCSVFilenameHook
VRTAddBand
VRTAddComplexSource
VRTAddFuncSource
VRTAddSimpleSource
VRTCreate
VRTFlushCache
VRTSerializeToXML
VSIAbortPendingUploads
VSIAllocFilesystemPluginCallbacksStruct
VSICTime
VSICalloc
VSICallocVerbose
VSICleanupFileManager
VSIClearCredentials
VSIClearPathSpecificOptions
VSICloseDir
VSICurlClearCache
VSICurlPartialClearCache
VSIError
VSIErrorReset
VSIFClose
VSIFCloseL
VSIFEof
VSIFEofL
VSIFFlush
VSIFFlushL
VSIFGetNativeFileDescriptorL
VSIFGetRangeStatusL
VSIFGetc
VSIFGets
VSIFOpen
VSIFOpenEx2L
VSIFOpenExL
VSIFOpenL
VSIFPrintf
VSIFPrintfL
VSIFPutc
VSIFPutcL
VSIFPuts
VSIFRead
VSIFReadL
VSIFReadMultiRangeL
VSIFSeek
VSIFSeekL
VSIFTell
VSIFTellL
VSIFTruncateL
VSIFWrite
VSIFWriteL
VSIFileFromMemBuffer
VSIFree
VSIFreeAligned
VSIFreeFilesystemPluginCallbacksStruct
VSIGMTime
VSIGetActualURL
VSIGetCredential
VSIGetDiskFreeSpace
VSIGetFileMetadata
VSIGetFileSystemOptions
VSIGetFileSystemsPrefixes
VSIGetLastErrorMsg
VSIGetLastErrorNo
VSIGetMemFileBuffer
VSIGetNextDirEntry
VSIGetPathSpecificOption
VSIGetSignedURL
VSIHasOptimizedReadMultiRange
VSIIngestFile
VSIInstallCryptFileHandler
VSIInstallLargeFileHandler
VSIInstallMemFileHandler
VSIInstallPluginHandler
VSIInstallSparseFileHandler
VSIInstallSubFileHandler
VSIIsCaseSensitiveFS
VSIIsLocal
VSILocalTime
VSIMalloc
VSIMalloc2
VSIMalloc2Verbose
VSIMalloc3
VSIMalloc3Verbose
VSIMallocAligned
VSIMallocAlignedAuto
VSIMallocAlignedAutoVerbose
VSIMallocVerbose
VSIMkdir
VSIMkdirRecursive
VSINetworkStatsGetAsSerializedJSON
VSINetworkStatsReset
VSIOpenDir
VSIOverwriteFile
VSIReadDir
VSIReadDirEx
VSIReadDirRecursive
VSIRealloc
VSIReallocVerbose
VSIRename
VSIRewind
VSIRewindL
VSIRmdir
VSIRmdirRecursive
VSISetCredential
VSISetCryptKey
VSISetFileMetadata
VSISetPathSpecificOption
VSISiblingFiles
VSIStat
VSIStatExL
VSIStatL
VSIStdoutSetRedirection
VSIStrdup
VSIStrdupVerbose
VSIStrerror
VSISupportsRandomWrite
VSISupportsSequentialWrite
VSISupportsSparseFiles
VSISync
VSITime
VSIToCPLError
VSIUngetc
VSIUnlink
VSIUnlinkBatch
_CPLAssert
_json_c_strerror
gdal_GTIFAllocDefn
gdal_GTIFAngleStringToDD
gdal_GTIFAngleToDD
gdal_GTIFDeaccessCSV
gdal_GTIFDecToDMS
gdal_GTIFDirectoryInfo
gdal_GTIFFree
gdal_GTIFFreeDefn
gdal_GTIFFreeMemory
gdal_GTIFGetDatumInfo
gdal_GTIFGetDatumInfoEx
gdal_GTIFGetDefn
gdal_GTIFGetEllipsoidInfo
gdal_GTIFGetEllipsoidInfoEx
gdal_GTIFGetGCSInfo
gdal_GTIFGetGCSInfoEx
gdal_GTIFGetPCSInfo
gdal_GTIFGetPCSInfoEx
gdal_GTIFGetPMInfo
gdal_GTIFGetPMInfoEx
gdal_GTIFGetProj4Defn
gdal_GTIFGetProjTRFInfo
gdal_GTIFGetProjTRFInfoEx
gdal_GTIFGetUOMAngleInfo
gdal_GTIFGetUOMAngleInfoEx
gdal_GTIFGetUOMLengthInfo
gdal_GTIFGetUOMLengthInfoEx
gdal_GTIFGetUserData
gdal_GTIFImageToPCS
gdal_GTIFImport
gdal_GTIFKeyCode
gdal_GTIFKeyGet
gdal_GTIFKeyGetASCII
gdal_GTIFKeyGetDOUBLE
gdal_GTIFKeyGetSHORT
gdal_GTIFKeyInfo
gdal_GTIFKeyName
gdal_GTIFKeyNameEx
gdal_GTIFKeySet
gdal_GTIFMapSysToPCS
gdal_GTIFMapSysToProj
gdal_GTIFNew
gdal_GTIFNewEx
gdal_GTIFNewSimpleTags
gdal_GTIFNewWithMethods
gdal_GTIFNewWithMethodsEx
gdal_GTIFPCSToImage
gdal_GTIFPCSToMapSys
gdal_GTIFPrint
gdal_GTIFPrintDefn
gdal_GTIFPrintDefnEx
gdal_GTIFProj4FromLatLong
gdal_GTIFProj4ToLatLong
gdal_GTIFProjToMapSys
gdal_GTIFSetFromProj4
gdal_GTIFSetSimpleTagsMethods
gdal_GTIFSetVersionNumbers
gdal_GTIFTagCode
gdal_GTIFTagName
gdal_GTIFTypeCode
gdal_GTIFTypeName
gdal_GTIFValueCode
gdal_GTIFValueName
gdal_GTIFValueNameEx
gdal_GTIFWriteKeys
gdal_ST_Create
gdal_ST_Destroy
gdal_ST_GetKey
gdal_ST_SetKey
gdal_ST_TagType
gdal_XTIFFClientOpen
gdal_XTIFFClose
gdal_XTIFFFdOpen
gdal_XTIFFInitialize
gdal_XTIFFOpen
gdal__GTIFFree
gdal__GTIFSetDefaultTIFF
gdal__GTIFcalloc
gdal__GTIFmemcpy
gdal__GTIFrealloc
json_c_object_sizeof
json_c_set_serialization_double_format
json_c_shallow_copy_default
json_c_version
json_c_version_num
json_object_array_add
json_object_array_bsearch
json_object_array_del_idx
json_object_array_get_idx
json_object_array_length
json_object_array_put_idx
json_object_array_shrink
json_object_array_sort
json_object_deep_copy
json_object_double_to_json_string
json_object_equal
json_object_free_userdata
json_object_from_fd
json_object_from_fd_ex
json_object_from_file
json_object_get
json_object_get_array
json_object_get_boolean
json_object_get_double
json_object_get_int
json_object_get_int64
json_object_get_object
json_object_get_string
json_object_get_string_len
json_object_get_type
json_object_get_uint64
json_object_get_userdata
json_object_int_inc
json_object_is_type
json_object_iter_begin
json_object_iter_end
json_object_iter_equal
json_object_iter_init_default
json_object_iter_next
json_object_iter_peek_name
json_object_iter_peek_value
json_object_new_array
json_object_new_array_ext
json_object_new_boolean
json_object_new_double
json_object_new_double_s
json_object_new_double_with_precision
json_object_new_double_with_significant_figures
json_object_new_int
json_object_new_int64
json_object_new_null
json_object_new_object
json_object_new_string
json_object_new_string_len
json_object_new_uint64
json_object_object_add
json_object_object_add_ex
json_object_object_del
json_object_object_get
json_object_object_get_ex
json_object_object_length
json_object_put
json_object_set_boolean
json_object_set_double
json_object_set_int
json_object_set_int64
json_object_set_serializer
json_object_set_string
json_object_set_string_len
json_object_set_uint64
json_object_set_userdata
json_object_to_fd
json_object_to_file
json_object_to_file_ext
json_object_to_json_string
json_object_to_json_string_ext
json_object_to_json_string_length
json_object_userdata_to_json_string
json_parse_double
json_parse_int64
json_parse_uint64
json_tokener_error_desc
json_tokener_free
json_tokener_get_error
json_tokener_get_parse_end
json_tokener_new
json_tokener_new_ex
json_tokener_parse
json_tokener_parse_ex
json_tokener_parse_verbose
json_tokener_reset
json_tokener_set_flags
json_type_to_name
json_util_get_last_err
mc_debug
mc_error
mc_get_debug
mc_info
mc_set_debug
mc_set_syslog
printbuf_free
printbuf_memappend
printbuf_memset
printbuf_new
printbuf_reset
sprintbuf
sqlite3_extension_init
